******************************************************************************
                  TI ARM Linker PC v18.12.5                    
******************************************************************************
>> Linked Thu Mar 19 14:20:13 2026

OUTPUT FILE NAME:   <rfPacketTx_CC1350STK_tirtos_ccs.out>
ENTRY POINT SYMBOL: "ResetISR"  address: 0000aa79


MEMORY CONFIGURATION

         name            origin    length      used     unused   attr    fill
----------------------  --------  ---------  --------  --------  ----  --------
  FLASH                 00000000   00020000  00011d2d  0000e2d3  R  X
  SRAM                  20000000   00005000  00003c56  000013aa  RW X


SEGMENT ALLOCATION MAP

run origin  load origin   length   init length attrs members
----------  ----------- ---------- ----------- ----- -------
00000000    00000000    00011ce0   00011ce0    r-x
  00000000    00000000    0000003c   0000003c    r-- .resetVecs
  0000003c    0000003c    00000fc4   00000fc4    r-x .text.1
  00001000    00001000    0000003c   0000003c    r-- .const:ti_sysbios_knl_Task_Object__PARAMS__C
  0000103c    0000103c    00000034   00000034    r-- .const:ti_sysbios_knl_Mailbox_Object__PARAMS__C
  00001070    00001070    00000030   00000030    r-- .const:ti_sysbios_family_arm_m3_Hwi_Object__PARAMS__C
  000010a0    000010a0    0000002c   0000002c    r-- .const:ti_sysbios_hal_Hwi_Object__PARAMS__C
  000010cc    000010cc    00000028   00000028    r-- .const:ti_sysbios_heaps_HeapMem_Module__FXNS__C
  000010f4    000010f4    00000028   00000028    r-- .const:ti_sysbios_knl_Swi_Object__PARAMS__C
  0000111c    0000111c    00000024   00000024    r-- .const:ti_sysbios_gates_GateHwi_Module__FXNS__C
  00001140    00001140    00000024   00000024    r-- .const:ti_sysbios_gates_GateMutex_Module__FXNS__C
  00001164    00001164    00000024   00000024    r-- .const:ti_sysbios_heaps_HeapMem_Object__PARAMS__C
  00001188    00001188    00000024   00000024    r-- .const:ti_sysbios_knl_Clock_Object__PARAMS__C
  000011ac    000011ac    00000024   00000024    r-- .const:ti_sysbios_knl_Semaphore_Object__PARAMS__C
  000011d0    000011d0    00000020   00000020    r-- .const:ti_sysbios_family_arm_m3_Hwi_Object__DESC__C
  000011f0    000011f0    00000020   00000020    r-- .const:ti_sysbios_gates_GateHwi_Object__DESC__C
  00001210    00001210    00000020   00000020    r-- .const:ti_sysbios_gates_GateMutex_Object__DESC__C
  00001230    00001230    00000020   00000020    r-- .const:ti_sysbios_hal_Hwi_Object__DESC__C
  00001250    00001250    00000020   00000020    r-- .const:ti_sysbios_heaps_HeapMem_Object__DESC__C
  00001270    00001270    00000020   00000020    r-- .const:ti_sysbios_knl_Clock_Object__DESC__C
  00001290    00001290    00000020   00000020    r-- .const:ti_sysbios_knl_Mailbox_Object__DESC__C
  000012b0    000012b0    00000020   00000020    r-- .const:ti_sysbios_knl_Queue_Object__DESC__C
  000012d0    000012d0    00000020   00000020    r-- .const:ti_sysbios_knl_Semaphore_Object__DESC__C
  000012f0    000012f0    00000020   00000020    r-- .const:ti_sysbios_knl_Swi_Object__DESC__C
  00001310    00001310    00000020   00000020    r-- .const:ti_sysbios_knl_Task_Object__DESC__C
  00001330    00001330    00000018   00000018    r-- .const:ti_sysbios_gates_GateHwi_Object__PARAMS__C
  00001348    00001348    00000018   00000018    r-- .const:ti_sysbios_gates_GateMutex_Object__PARAMS__C
  00001360    00001360    00000018   00000018    r-- .const:ti_sysbios_knl_Queue_Object__PARAMS__C
  00001378    00001378    00000008   00000008    r-- .const:ti_sysbios_knl_Idle_funcList__C
  00001380    00001380    00000004   00000004    r-x .text.2
  00001384    00001384    00000004   00000004    r-- .const:ti_sysbios_family_arm_cc26xx_Timer_startupNeeded__C
  00001388    00001388    00000004   00000004    r-- .const:ti_sysbios_family_arm_m3_Hwi_E_alreadyDefined__C
  0000138c    0000138c    00000004   00000004    r-- .const:ti_sysbios_family_arm_m3_Hwi_E_hwiLimitExceeded__C
  00001390    00001390    00000004   00000004    r-- .const:ti_sysbios_family_arm_m3_Hwi_NUM_INTERRUPTS__C
  00001394    00001394    00000004   00000004    r-- .const:ti_sysbios_family_arm_m3_Hwi_Object__count__C
  00001398    00001398    00000004   00000004    r-- .const:ti_sysbios_family_arm_m3_Hwi_Object__table__C
  0000139c    0000139c    00000004   00000004    r-- .const:ti_sysbios_family_arm_m3_Hwi_ccr__C
  000013a0    000013a0    00000004   00000004    r-- .const:ti_sysbios_family_arm_m3_Hwi_excHandlerFunc__C
  000013a4    000013a4    00000004   00000004    r-- .const:ti_sysbios_family_arm_m3_Hwi_nullIsrFunc__C
  000013a8    000013a8    00000004   00000004    r-- .const:ti_sysbios_family_arm_m3_Hwi_numSparseInterrupts__C
  000013ac    000013ac    00000004   00000004    r-- .const:ti_sysbios_family_arm_m3_Hwi_priGroup__C
  000013b0    000013b0    00000004   00000004    r-- .const:ti_sysbios_family_arm_m3_TaskSupport_stackAlignment__C
  000013b4    000013b4    00000004   00000004    r-- .const:ti_sysbios_heaps_HeapMem_E_memory__C
  000013b8    000013b8    00000004   00000004    r-- .const:ti_sysbios_heaps_HeapMem_Module__gateObj__C
  000013bc    000013bc    00000004   00000004    r-- .const:ti_sysbios_heaps_HeapMem_Object__count__C
  000013c0    000013c0    00000004   00000004    r-- .const:ti_sysbios_heaps_HeapMem_Object__table__C
  000013c4    000013c4    00000004   00000004    r-- .const:ti_sysbios_heaps_HeapMem_reqAlign__C
  000013c8    000013c8    00000004   00000004    r-- .const:ti_sysbios_knl_Clock_serviceMargin__C
  000013cc    000013cc    00000004   00000004    r-- .const:ti_sysbios_knl_Mailbox_Object__count__C
  000013d0    000013d0    00000004   00000004    r-- .const:ti_sysbios_knl_Mailbox_Object__table__C
  000013d4    000013d4    00000004   00000004    r-- .const:ti_sysbios_knl_Mailbox_maxTypeAlign__C
  000013d8    000013d8    00000004   00000004    r-- .const:ti_sysbios_knl_Queue_Object__count__C
  000013dc    000013dc    00000004   00000004    r-- .const:ti_sysbios_knl_Queue_Object__table__C
  000013e0    000013e0    00000004   00000004    r-- .const:ti_sysbios_knl_Swi_Object__count__C
  000013e4    000013e4    00000004   00000004    r-- .const:ti_sysbios_knl_Swi_Object__table__C
  000013e8    000013e8    00000004   00000004    r-- .const:ti_sysbios_knl_Swi_numPriorities__C
  000013ec    000013ec    00000004   00000004    r-- .const:ti_sysbios_knl_Task_Object__count__C
  000013f0    000013f0    00000004   00000004    r-- .const:ti_sysbios_knl_Task_Object__table__C
  000013f4    000013f4    00000004   00000004    r-- .const:ti_sysbios_knl_Task_allBlockedFunc__C
  000013f8    000013f8    00000004   00000004    r-- .const:ti_sysbios_knl_Task_defaultStackHeap__C
  000013fc    000013fc    00000004   00000004    r-- .const:ti_sysbios_knl_Task_defaultStackSize__C
  00001400    00001400    00000004   00000004    r-- .const:ti_sysbios_knl_Task_numConstructedTasks__C
  00001404    00001404    00000002   00000002    r-x .text.3
  00001406    00001406    00000002   00000002    r-- .const:ti_sysbios_family_arm_cc26xx_Timer_Module__id__C
  00001408    00001408    00000002   00000002    r-- .const:ti_sysbios_family_arm_cc26xx_TimestampProvider_useClockTimer__C
  0000140a    0000140a    00000002   00000002    r-- .const:ti_sysbios_family_arm_m3_Hwi_Module__id__C
  0000140c    0000140c    00000002   00000002    r-- .const:ti_sysbios_gates_GateHwi_Module__id__C
  0000140e    0000140e    00000002   00000002    r-- .const:ti_sysbios_gates_GateMutex_Module__id__C
  00001410    00001410    00000002   00000002    r-- .const:ti_sysbios_heaps_HeapMem_Module__id__C
  00001412    00001412    00000002   00000002    r-- .const:ti_sysbios_knl_Task_initStackFlag__C
  00001414    00001414    00000001   00000001    r-- .const:ti_sysbios_knl_Clock_tickMode__C
  00001418    00001418    00000008   00000008    r-- .const:xdc_runtime_Startup_firstFxns__C
  00001420    00001420    00000008   00000008    r-- .const:xdc_runtime_Startup_lastFxns__C
  00001428    00001428    00000004   00000004    r-- .const:xdc_runtime_Assert_E_assertFailed__C
  0000142c    0000142c    00000004   00000004    r-- .const:xdc_runtime_Error_E_memory__C
  00001430    00001430    00000004   00000004    r-- .const:xdc_runtime_Error_policyFxn__C
  00001434    00001434    00000004   00000004    r-- .const:xdc_runtime_IGateProvider_Interface__BASE__C
  00001438    00001438    00000004   00000004    r-- .const:xdc_runtime_IHeap_Interface__BASE__C
  0000143c    0000143c    00000004   00000004    r-- .const:xdc_runtime_IModule_Interface__BASE__C
  00001440    00001440    00000004   00000004    r-- .const:xdc_runtime_Main_Module__diagsEnabled__C
  00001444    00001444    00000004   00000004    r-- .const:xdc_runtime_Main_Module__diagsIncluded__C
  00001448    00001448    00000004   00000004    r-- .const:xdc_runtime_Main_Module__diagsMask__C
  0000144c    0000144c    00000004   00000004    r-- .const:xdc_runtime_Memory_defaultHeapInstance__C
  00001450    00001450    00000004   00000004    r-- .const:xdc_runtime_Startup_execImpl__C
  00001454    00001454    00000004   00000004    r-- .const:xdc_runtime_Startup_maxPasses__C
  00001458    00001458    00000004   00000004    r-- .const:xdc_runtime_Startup_sfxnRts__C
  0000145c    0000145c    00000004   00000004    r-- .const:xdc_runtime_Startup_sfxnTab__C
  00001460    00001460    00000004   00000004    r-- .const:xdc_runtime_Startup_startModsFxn__C
  00001464    00001464    00000004   00000004    r-- .const:xdc_runtime_SysCallback_abortFxn__C
  00001468    00001468    00000004   00000004    r-- .const:xdc_runtime_SysCallback_exitFxn__C
  0000146c    0000146c    00000004   00000004    r-- .const:xdc_runtime_System_abortFxn__C
  00001470    00001470    00000004   00000004    r-- .const:xdc_runtime_System_exitFxn__C
  00001474    00001474    00000004   00000004    r-- .const:xdc_runtime_System_maxAtexitHandlers__C
  00001478    00001478    00000004   00000004    r-- .const:xdc_runtime_Text_charTab__C
  0000147c    0000147c    00000004   00000004    r-- .const:xdc_runtime_Text_nameEmpty__C
  00001480    00001480    00000004   00000004    r-- .const:xdc_runtime_Text_nameStatic__C
  00001484    00001484    00000004   00000004    r-- .const:xdc_runtime_Text_nameUnknown__C
  00001488    00001488    00000002   00000002    r-- .const:xdc_runtime_Main_Module__id__C
  0000148a    0000148a    00000002   00000002    r-- .const:xdc_runtime_Memory_Module__id__C
  0000148c    0000148c    00000002   00000002    r-- .const:xdc_runtime_Text_charCnt__C
  0000148e    0000148e    00000002   00000002    r-- .const:xdc_runtime_Text_isLoaded__C
  00001490    00001490    00000001   00000001    r-- .const:xdc_runtime_Error_policy__C
  00001494    00001494    00000004   00000004    r-- .const:ti_sysbios_rom_ROM_AONRTCChannelEnable
  00001498    00001498    00000004   00000004    r-- .const:ti_sysbios_rom_ROM_AONRTCCompareValueSet
  0000149c    0000149c    00000004   00000004    r-- .const:ti_sysbios_rom_ROM_AONRTCCurrentCompareValueGet
  000014a0    000014a0    00000004   00000004    r-- .const:ti_sysbios_rom_ROM_AONRTCEventClear
  000014a4    000014a4    00000004   00000004    r-- .const:ti_sysbios_rom_ROM_ti_sysbios_family_arm_cc26xx_Timer_getCount64__E
  000014a8    000014a8    00000004   00000004    r-- .const:ti_sysbios_rom_ROM_ti_sysbios_family_arm_cc26xx_Timer_getCurrentTick__E
  000014ac    000014ac    00000004   00000004    r-- .const:ti_sysbios_rom_ROM_ti_sysbios_family_arm_cc26xx_Timer_getMaxTicks__E
  000014b0    000014b0    00000004   00000004    r-- .const:ti_sysbios_rom_ROM_ti_sysbios_family_arm_cc26xx_Timer_initDevice__I
  000014b4    000014b4    00000004   00000004    r-- .const:ti_sysbios_rom_ROM_ti_sysbios_family_arm_cc26xx_Timer_setNextTick__E
  000014b8    000014b8    00000004   00000004    r-- .const:ti_sysbios_rom_ROM_ti_sysbios_family_arm_cc26xx_Timer_setThreshold__I
  000014bc    000014bc    00000004   00000004    r-- .const:ti_sysbios_rom_ROM_ti_sysbios_family_arm_cc26xx_Timer_start__E
  000014c0    000014c0    00000004   00000004    r-- .const:ti_sysbios_rom_ROM_ti_sysbios_family_arm_cc26xx_TimestampProvider_get32__E
  000014c4    000014c4    00000004   00000004    r-- .const:ti_sysbios_rom_ROM_xdc_runtime_Startup_getState__I
  000014c8    000014c8    00000004   00000004    r-- .const:ti_sysbios_rom_ROM_xdc_runtime_System_SupportProxy_abort__E
  000014cc    000014cc    00000004   00000004    r-- .const:ti_sysbios_rom_ROM_xdc_runtime_System_SupportProxy_exit__E
  000014d0    000014d0    00000004   00000004    r-- .const:ti_sysbios_gates_GateMutex_Instance_State_sem__O
  000014d4    000014d4    00000004   00000004    r-- .const:ti_sysbios_knl_Clock_Module_State_clockQ__O
  000014d8    000014d8    00000004   00000004    r-- .const:ti_sysbios_knl_Mailbox_Instance_State_dataQue__O
  000014dc    000014dc    00000004   00000004    r-- .const:ti_sysbios_knl_Mailbox_Instance_State_dataSem__O
  000014e0    000014e0    00000004   00000004    r-- .const:ti_sysbios_knl_Mailbox_Instance_State_freeQue__O
  000014e4    000014e4    00000004   00000004    r-- .const:ti_sysbios_knl_Mailbox_Instance_State_freeSem__O
  000014e8    000014e8    00000004   00000004    r-- .const:ti_sysbios_knl_Semaphore_Instance_State_pendQ__O
  000014ec    000014ec    00000004   00000004    r-- .const:ti_sysbios_knl_Task_Module_State_inactiveQ__O
  000014f0    000014f0    0000bdcc   0000bdcc    r-x .text.4
  0000d2c0    0000d2c0    00004567   00004567    r-- .const
  00011828    00011828    000004b8   000004b8    r-- .cinit
0001ffa8    0001ffa8    00000058   00000058    r--
  0001ffa8    0001ffa8    00000058   00000058    r-- .ccfg
20000100    20000100    00000104   00000000    rw-
  20000100    20000100    00000044   00000000    rw- .data:ti_sysbios_knl_Task_Module__state__V
  20000144    20000144    00000034   00000000    rw- .data:ti_sysbios_family_arm_m3_Hwi_Module__state__V
  20000178    20000178    0000002c   00000000    rw- .data:ti_sysbios_knl_Clock_Module__state__V
  200001a4    200001a4    00000024   00000000    rw- .data:ti_sysbios_BIOS_Module__state__V
  200001c8    200001c8    0000001c   00000000    rw- .data:ti_sysbios_knl_Swi_Module__state__V
  200001e4    200001e4    00000008   00000000    rw- .data:ti_sysbios_family_arm_cc26xx_Timer_Module__state__V
  200001ec    200001ec    00000004   00000000    rw- .data:ti_sysbios_family_arm_cc26xx_TimestampProvider_Module__state__V
  200001f0    200001f0    00000008   00000000    rw- .data:xdc_runtime_Startup_Module__state__V
  200001f8    200001f8    00000008   00000000    rw- .data:xdc_runtime_System_Module__state__V
  20000200    20000200    00000004   00000000    rw- .data:xdc_runtime_Memory_Module__state__V
20000430    20000430    00000010   00000000    rw-
  20000430    20000430    00000010   00000000    rw- .TI.bound:dmaSpi0RxControlTableEntry
20000440    20000440    00000010   00000000    rw-
  20000440    20000440    00000010   00000000    rw- .TI.bound:dmaSpi0TxControlTableEntry
20000500    20000500    00000010   00000000    rw-
  20000500    20000500    00000010   00000000    rw- .TI.bound:dmaSpi1RxControlTableEntry
20000510    20000510    00001c54   00000000    rw-
  20000510    20000510    00000010   00000000    rw- .TI.bound:dmaSpi1TxControlTableEntry
  20000520    20000520    00001c44   00000000    rw- .bss
20002168    20002168    00001000   00000000    r--
  20002168    20002168    00001000   00000000    r-- .priheap
20003168    20003168    00000a06   00000000    rw-
  20003168    20003168    00000a06   00000000    rw- .data
20004c00    20004c00    00000400   00000000    rw-
  20004c00    20004c00    00000400   00000000    rw- .stack


SECTION ALLOCATION MAP

 output                                  attributes/
section   page    origin      length       input sections
--------  ----  ----------  ----------   ----------------
.const:ti_sysbios_knl_Task_Object__PARAMS__C 
*          0    00001000    0000003c     
                  00001000    0000003c     release_pem3.oem3 (.const:ti_sysbios_knl_Task_Object__PARAMS__C)

.const:ti_sysbios_knl_Mailbox_Object__PARAMS__C 
*          0    0000103c    00000034     
                  0000103c    00000034     release_pem3.oem3 (.const:ti_sysbios_knl_Mailbox_Object__PARAMS__C)

.const:ti_sysbios_family_arm_m3_Hwi_Object__PARAMS__C 
*          0    00001070    00000030     
                  00001070    00000030     release_pem3.oem3 (.const:ti_sysbios_family_arm_m3_Hwi_Object__PARAMS__C)

.const:ti_sysbios_hal_Hwi_Object__PARAMS__C 
*          0    000010a0    0000002c     
                  000010a0    0000002c     release_pem3.oem3 (.const:ti_sysbios_hal_Hwi_Object__PARAMS__C)

.const:ti_sysbios_heaps_HeapMem_Module__FXNS__C 
*          0    000010cc    00000028     
                  000010cc    00000028     release_pem3.oem3 (.const:ti_sysbios_heaps_HeapMem_Module__FXNS__C)

.const:ti_sysbios_knl_Swi_Object__PARAMS__C 
*          0    000010f4    00000028     
                  000010f4    00000028     release_pem3.oem3 (.const:ti_sysbios_knl_Swi_Object__PARAMS__C)

.const:ti_sysbios_gates_GateHwi_Module__FXNS__C 
*          0    0000111c    00000024     
                  0000111c    00000024     release_pem3.oem3 (.const:ti_sysbios_gates_GateHwi_Module__FXNS__C)

.const:ti_sysbios_gates_GateMutex_Module__FXNS__C 
*          0    00001140    00000024     
                  00001140    00000024     release_pem3.oem3 (.const:ti_sysbios_gates_GateMutex_Module__FXNS__C)

.const:ti_sysbios_heaps_HeapMem_Object__PARAMS__C 
*          0    00001164    00000024     
                  00001164    00000024     release_pem3.oem3 (.const:ti_sysbios_heaps_HeapMem_Object__PARAMS__C)

.const:ti_sysbios_knl_Clock_Object__PARAMS__C 
*          0    00001188    00000024     
                  00001188    00000024     release_pem3.oem3 (.const:ti_sysbios_knl_Clock_Object__PARAMS__C)

.const:ti_sysbios_knl_Semaphore_Object__PARAMS__C 
*          0    000011ac    00000024     
                  000011ac    00000024     release_pem3.oem3 (.const:ti_sysbios_knl_Semaphore_Object__PARAMS__C)

.const:ti_sysbios_family_arm_m3_Hwi_Object__DESC__C 
*          0    000011d0    00000020     
                  000011d0    00000020     release_pem3.oem3 (.const:ti_sysbios_family_arm_m3_Hwi_Object__DESC__C)

.const:ti_sysbios_gates_GateHwi_Object__DESC__C 
*          0    000011f0    00000020     
                  000011f0    00000020     release_pem3.oem3 (.const:ti_sysbios_gates_GateHwi_Object__DESC__C)

.const:ti_sysbios_gates_GateMutex_Object__DESC__C 
*          0    00001210    00000020     
                  00001210    00000020     release_pem3.oem3 (.const:ti_sysbios_gates_GateMutex_Object__DESC__C)

.const:ti_sysbios_hal_Hwi_Object__DESC__C 
*          0    00001230    00000020     
                  00001230    00000020     release_pem3.oem3 (.const:ti_sysbios_hal_Hwi_Object__DESC__C)

.const:ti_sysbios_heaps_HeapMem_Object__DESC__C 
*          0    00001250    00000020     
                  00001250    00000020     release_pem3.oem3 (.const:ti_sysbios_heaps_HeapMem_Object__DESC__C)

.const:ti_sysbios_knl_Clock_Object__DESC__C 
*          0    00001270    00000020     
                  00001270    00000020     release_pem3.oem3 (.const:ti_sysbios_knl_Clock_Object__DESC__C)

.const:ti_sysbios_knl_Mailbox_Object__DESC__C 
*          0    00001290    00000020     
                  00001290    00000020     release_pem3.oem3 (.const:ti_sysbios_knl_Mailbox_Object__DESC__C)

.const:ti_sysbios_knl_Queue_Object__DESC__C 
*          0    000012b0    00000020     
                  000012b0    00000020     release_pem3.oem3 (.const:ti_sysbios_knl_Queue_Object__DESC__C)

.const:ti_sysbios_knl_Semaphore_Object__DESC__C 
*          0    000012d0    00000020     
                  000012d0    00000020     release_pem3.oem3 (.const:ti_sysbios_knl_Semaphore_Object__DESC__C)

.const:ti_sysbios_knl_Swi_Object__DESC__C 
*          0    000012f0    00000020     
                  000012f0    00000020     release_pem3.oem3 (.const:ti_sysbios_knl_Swi_Object__DESC__C)

.const:ti_sysbios_knl_Task_Object__DESC__C 
*          0    00001310    00000020     
                  00001310    00000020     release_pem3.oem3 (.const:ti_sysbios_knl_Task_Object__DESC__C)

.const:ti_sysbios_gates_GateHwi_Object__PARAMS__C 
*          0    00001330    00000018     
                  00001330    00000018     release_pem3.oem3 (.const:ti_sysbios_gates_GateHwi_Object__PARAMS__C)

.const:ti_sysbios_gates_GateMutex_Object__PARAMS__C 
*          0    00001348    00000018     
                  00001348    00000018     release_pem3.oem3 (.const:ti_sysbios_gates_GateMutex_Object__PARAMS__C)

.const:ti_sysbios_knl_Queue_Object__PARAMS__C 
*          0    00001360    00000018     
                  00001360    00000018     release_pem3.oem3 (.const:ti_sysbios_knl_Queue_Object__PARAMS__C)

.const:ti_sysbios_knl_Idle_funcList__C 
*          0    00001378    00000008     
                  00001378    00000008     release_pem3.oem3 (.const:ti_sysbios_knl_Idle_funcList__C)

.const:ti_sysbios_family_arm_cc26xx_Timer_startupNeeded__C 
*          0    00001384    00000004     
                  00001384    00000004     release_pem3.oem3 (.const:ti_sysbios_family_arm_cc26xx_Timer_startupNeeded__C)

.const:ti_sysbios_family_arm_m3_Hwi_E_alreadyDefined__C 
*          0    00001388    00000004     
                  00001388    00000004     release_pem3.oem3 (.const:ti_sysbios_family_arm_m3_Hwi_E_alreadyDefined__C)

.const:ti_sysbios_family_arm_m3_Hwi_E_hwiLimitExceeded__C 
*          0    0000138c    00000004     
                  0000138c    00000004     release_pem3.oem3 (.const:ti_sysbios_family_arm_m3_Hwi_E_hwiLimitExceeded__C)

.const:ti_sysbios_family_arm_m3_Hwi_NUM_INTERRUPTS__C 
*          0    00001390    00000004     
                  00001390    00000004     release_pem3.oem3 (.const:ti_sysbios_family_arm_m3_Hwi_NUM_INTERRUPTS__C)

.const:ti_sysbios_family_arm_m3_Hwi_Object__count__C 
*          0    00001394    00000004     
                  00001394    00000004     release_pem3.oem3 (.const:ti_sysbios_family_arm_m3_Hwi_Object__count__C)

.const:ti_sysbios_family_arm_m3_Hwi_Object__table__C 
*          0    00001398    00000004     
                  00001398    00000004     release_pem3.oem3 (.const:ti_sysbios_family_arm_m3_Hwi_Object__table__C)

.const:ti_sysbios_family_arm_m3_Hwi_ccr__C 
*          0    0000139c    00000004     
                  0000139c    00000004     release_pem3.oem3 (.const:ti_sysbios_family_arm_m3_Hwi_ccr__C)

.const:ti_sysbios_family_arm_m3_Hwi_excHandlerFunc__C 
*          0    000013a0    00000004     
                  000013a0    00000004     release_pem3.oem3 (.const:ti_sysbios_family_arm_m3_Hwi_excHandlerFunc__C)

.const:ti_sysbios_family_arm_m3_Hwi_nullIsrFunc__C 
*          0    000013a4    00000004     
                  000013a4    00000004     release_pem3.oem3 (.const:ti_sysbios_family_arm_m3_Hwi_nullIsrFunc__C)

.const:ti_sysbios_family_arm_m3_Hwi_numSparseInterrupts__C 
*          0    000013a8    00000004     
                  000013a8    00000004     release_pem3.oem3 (.const:ti_sysbios_family_arm_m3_Hwi_numSparseInterrupts__C)

.const:ti_sysbios_family_arm_m3_Hwi_priGroup__C 
*          0    000013ac    00000004     
                  000013ac    00000004     release_pem3.oem3 (.const:ti_sysbios_family_arm_m3_Hwi_priGroup__C)

.const:ti_sysbios_family_arm_m3_TaskSupport_stackAlignment__C 
*          0    000013b0    00000004     
                  000013b0    00000004     release_pem3.oem3 (.const:ti_sysbios_family_arm_m3_TaskSupport_stackAlignment__C)

.const:ti_sysbios_heaps_HeapMem_E_memory__C 
*          0    000013b4    00000004     
                  000013b4    00000004     release_pem3.oem3 (.const:ti_sysbios_heaps_HeapMem_E_memory__C)

.const:ti_sysbios_heaps_HeapMem_Module__gateObj__C 
*          0    000013b8    00000004     
                  000013b8    00000004     release_pem3.oem3 (.const:ti_sysbios_heaps_HeapMem_Module__gateObj__C)

.const:ti_sysbios_heaps_HeapMem_Object__count__C 
*          0    000013bc    00000004     
                  000013bc    00000004     release_pem3.oem3 (.const:ti_sysbios_heaps_HeapMem_Object__count__C)

.const:ti_sysbios_heaps_HeapMem_Object__table__C 
*          0    000013c0    00000004     
                  000013c0    00000004     release_pem3.oem3 (.const:ti_sysbios_heaps_HeapMem_Object__table__C)

.const:ti_sysbios_heaps_HeapMem_reqAlign__C 
*          0    000013c4    00000004     
                  000013c4    00000004     release_pem3.oem3 (.const:ti_sysbios_heaps_HeapMem_reqAlign__C)

.const:ti_sysbios_knl_Clock_serviceMargin__C 
*          0    000013c8    00000004     
                  000013c8    00000004     release_pem3.oem3 (.const:ti_sysbios_knl_Clock_serviceMargin__C)

.const:ti_sysbios_knl_Mailbox_Object__count__C 
*          0    000013cc    00000004     
                  000013cc    00000004     release_pem3.oem3 (.const:ti_sysbios_knl_Mailbox_Object__count__C)

.const:ti_sysbios_knl_Mailbox_Object__table__C 
*          0    000013d0    00000004     
                  000013d0    00000004     release_pem3.oem3 (.const:ti_sysbios_knl_Mailbox_Object__table__C)

.const:ti_sysbios_knl_Mailbox_maxTypeAlign__C 
*          0    000013d4    00000004     
                  000013d4    00000004     release_pem3.oem3 (.const:ti_sysbios_knl_Mailbox_maxTypeAlign__C)

.const:ti_sysbios_knl_Queue_Object__count__C 
*          0    000013d8    00000004     
                  000013d8    00000004     release_pem3.oem3 (.const:ti_sysbios_knl_Queue_Object__count__C)

.const:ti_sysbios_knl_Queue_Object__table__C 
*          0    000013dc    00000004     
                  000013dc    00000004     release_pem3.oem3 (.const:ti_sysbios_knl_Queue_Object__table__C)

.const:ti_sysbios_knl_Swi_Object__count__C 
*          0    000013e0    00000004     
                  000013e0    00000004     release_pem3.oem3 (.const:ti_sysbios_knl_Swi_Object__count__C)

.const:ti_sysbios_knl_Swi_Object__table__C 
*          0    000013e4    00000004     
                  000013e4    00000004     release_pem3.oem3 (.const:ti_sysbios_knl_Swi_Object__table__C)

.const:ti_sysbios_knl_Swi_numPriorities__C 
*          0    000013e8    00000004     
                  000013e8    00000004     release_pem3.oem3 (.const:ti_sysbios_knl_Swi_numPriorities__C)

.const:ti_sysbios_knl_Task_Object__count__C 
*          0    000013ec    00000004     
                  000013ec    00000004     release_pem3.oem3 (.const:ti_sysbios_knl_Task_Object__count__C)

.const:ti_sysbios_knl_Task_Object__table__C 
*          0    000013f0    00000004     
                  000013f0    00000004     release_pem3.oem3 (.const:ti_sysbios_knl_Task_Object__table__C)

.const:ti_sysbios_knl_Task_allBlockedFunc__C 
*          0    000013f4    00000004     
                  000013f4    00000004     release_pem3.oem3 (.const:ti_sysbios_knl_Task_allBlockedFunc__C)

.const:ti_sysbios_knl_Task_defaultStackHeap__C 
*          0    000013f8    00000004     
                  000013f8    00000004     release_pem3.oem3 (.const:ti_sysbios_knl_Task_defaultStackHeap__C)

.const:ti_sysbios_knl_Task_defaultStackSize__C 
*          0    000013fc    00000004     
                  000013fc    00000004     release_pem3.oem3 (.const:ti_sysbios_knl_Task_defaultStackSize__C)

.const:ti_sysbios_knl_Task_numConstructedTasks__C 
*          0    00001400    00000004     
                  00001400    00000004     release_pem3.oem3 (.const:ti_sysbios_knl_Task_numConstructedTasks__C)

.const:ti_sysbios_family_arm_cc26xx_Timer_Module__id__C 
*          0    00001406    00000002     
                  00001406    00000002     release_pem3.oem3 (.const:ti_sysbios_family_arm_cc26xx_Timer_Module__id__C)

.const:ti_sysbios_family_arm_cc26xx_TimestampProvider_useClockTimer__C 
*          0    00001408    00000002     
                  00001408    00000002     release_pem3.oem3 (.const:ti_sysbios_family_arm_cc26xx_TimestampProvider_useClockTimer__C)

.const:ti_sysbios_family_arm_m3_Hwi_Module__id__C 
*          0    0000140a    00000002     
                  0000140a    00000002     release_pem3.oem3 (.const:ti_sysbios_family_arm_m3_Hwi_Module__id__C)

.const:ti_sysbios_gates_GateHwi_Module__id__C 
*          0    0000140c    00000002     
                  0000140c    00000002     release_pem3.oem3 (.const:ti_sysbios_gates_GateHwi_Module__id__C)

.const:ti_sysbios_gates_GateMutex_Module__id__C 
*          0    0000140e    00000002     
                  0000140e    00000002     release_pem3.oem3 (.const:ti_sysbios_gates_GateMutex_Module__id__C)

.const:ti_sysbios_heaps_HeapMem_Module__id__C 
*          0    00001410    00000002     
                  00001410    00000002     release_pem3.oem3 (.const:ti_sysbios_heaps_HeapMem_Module__id__C)

.const:ti_sysbios_knl_Task_initStackFlag__C 
*          0    00001412    00000002     
                  00001412    00000002     release_pem3.oem3 (.const:ti_sysbios_knl_Task_initStackFlag__C)

.const:ti_sysbios_knl_Clock_tickMode__C 
*          0    00001414    00000001     
                  00001414    00000001     release_pem3.oem3 (.const:ti_sysbios_knl_Clock_tickMode__C)

.const:xdc_runtime_Startup_firstFxns__C 
*          0    00001418    00000008     
                  00001418    00000008     release_pem3.oem3 (.const:xdc_runtime_Startup_firstFxns__C)

.const:xdc_runtime_Startup_lastFxns__C 
*          0    00001420    00000008     
                  00001420    00000008     release_pem3.oem3 (.const:xdc_runtime_Startup_lastFxns__C)

.const:xdc_runtime_Assert_E_assertFailed__C 
*          0    00001428    00000004     
                  00001428    00000004     release_pem3.oem3 (.const:xdc_runtime_Assert_E_assertFailed__C)

.const:xdc_runtime_Error_E_memory__C 
*          0    0000142c    00000004     
                  0000142c    00000004     release_pem3.oem3 (.const:xdc_runtime_Error_E_memory__C)

.const:xdc_runtime_Error_policyFxn__C 
*          0    00001430    00000004     
                  00001430    00000004     release_pem3.oem3 (.const:xdc_runtime_Error_policyFxn__C)

.const:xdc_runtime_IGateProvider_Interface__BASE__C 
*          0    00001434    00000004     
                  00001434    00000004     release_pem3.oem3 (.const:xdc_runtime_IGateProvider_Interface__BASE__C)

.const:xdc_runtime_IHeap_Interface__BASE__C 
*          0    00001438    00000004     
                  00001438    00000004     release_pem3.oem3 (.const:xdc_runtime_IHeap_Interface__BASE__C)

.const:xdc_runtime_IModule_Interface__BASE__C 
*          0    0000143c    00000004     
                  0000143c    00000004     release_pem3.oem3 (.const:xdc_runtime_IModule_Interface__BASE__C)

.const:xdc_runtime_Main_Module__diagsEnabled__C 
*          0    00001440    00000004     
                  00001440    00000004     release_pem3.oem3 (.const:xdc_runtime_Main_Module__diagsEnabled__C)

.const:xdc_runtime_Main_Module__diagsIncluded__C 
*          0    00001444    00000004     
                  00001444    00000004     release_pem3.oem3 (.const:xdc_runtime_Main_Module__diagsIncluded__C)

.const:xdc_runtime_Main_Module__diagsMask__C 
*          0    00001448    00000004     
                  00001448    00000004     release_pem3.oem3 (.const:xdc_runtime_Main_Module__diagsMask__C)

.const:xdc_runtime_Memory_defaultHeapInstance__C 
*          0    0000144c    00000004     
                  0000144c    00000004     release_pem3.oem3 (.const:xdc_runtime_Memory_defaultHeapInstance__C)

.const:xdc_runtime_Startup_execImpl__C 
*          0    00001450    00000004     
                  00001450    00000004     release_pem3.oem3 (.const:xdc_runtime_Startup_execImpl__C)

.const:xdc_runtime_Startup_maxPasses__C 
*          0    00001454    00000004     
                  00001454    00000004     release_pem3.oem3 (.const:xdc_runtime_Startup_maxPasses__C)

.const:xdc_runtime_Startup_sfxnRts__C 
*          0    00001458    00000004     
                  00001458    00000004     release_pem3.oem3 (.const:xdc_runtime_Startup_sfxnRts__C)

.const:xdc_runtime_Startup_sfxnTab__C 
*          0    0000145c    00000004     
                  0000145c    00000004     release_pem3.oem3 (.const:xdc_runtime_Startup_sfxnTab__C)

.const:xdc_runtime_Startup_startModsFxn__C 
*          0    00001460    00000004     
                  00001460    00000004     release_pem3.oem3 (.const:xdc_runtime_Startup_startModsFxn__C)

.const:xdc_runtime_SysCallback_abortFxn__C 
*          0    00001464    00000004     
                  00001464    00000004     release_pem3.oem3 (.const:xdc_runtime_SysCallback_abortFxn__C)

.const:xdc_runtime_SysCallback_exitFxn__C 
*          0    00001468    00000004     
                  00001468    00000004     release_pem3.oem3 (.const:xdc_runtime_SysCallback_exitFxn__C)

.const:xdc_runtime_System_abortFxn__C 
*          0    0000146c    00000004     
                  0000146c    00000004     release_pem3.oem3 (.const:xdc_runtime_System_abortFxn__C)

.const:xdc_runtime_System_exitFxn__C 
*          0    00001470    00000004     
                  00001470    00000004     release_pem3.oem3 (.const:xdc_runtime_System_exitFxn__C)

.const:xdc_runtime_System_maxAtexitHandlers__C 
*          0    00001474    00000004     
                  00001474    00000004     release_pem3.oem3 (.const:xdc_runtime_System_maxAtexitHandlers__C)

.const:xdc_runtime_Text_charTab__C 
*          0    00001478    00000004     
                  00001478    00000004     release_pem3.oem3 (.const:xdc_runtime_Text_charTab__C)

.const:xdc_runtime_Text_nameEmpty__C 
*          0    0000147c    00000004     
                  0000147c    00000004     release_pem3.oem3 (.const:xdc_runtime_Text_nameEmpty__C)

.const:xdc_runtime_Text_nameStatic__C 
*          0    00001480    00000004     
                  00001480    00000004     release_pem3.oem3 (.const:xdc_runtime_Text_nameStatic__C)

.const:xdc_runtime_Text_nameUnknown__C 
*          0    00001484    00000004     
                  00001484    00000004     release_pem3.oem3 (.const:xdc_runtime_Text_nameUnknown__C)

.const:xdc_runtime_Main_Module__id__C 
*          0    00001488    00000002     
                  00001488    00000002     release_pem3.oem3 (.const:xdc_runtime_Main_Module__id__C)

.const:xdc_runtime_Memory_Module__id__C 
*          0    0000148a    00000002     
                  0000148a    00000002     release_pem3.oem3 (.const:xdc_runtime_Memory_Module__id__C)

.const:xdc_runtime_Text_charCnt__C 
*          0    0000148c    00000002     
                  0000148c    00000002     release_pem3.oem3 (.const:xdc_runtime_Text_charCnt__C)

.const:xdc_runtime_Text_isLoaded__C 
*          0    0000148e    00000002     
                  0000148e    00000002     release_pem3.oem3 (.const:xdc_runtime_Text_isLoaded__C)

.const:xdc_runtime_Error_policy__C 
*          0    00001490    00000001     
                  00001490    00000001     release_pem3.oem3 (.const:xdc_runtime_Error_policy__C)

.const:ti_sysbios_rom_ROM_AONRTCChannelEnable 
*          0    00001494    00000004     
                  00001494    00000004     release_pem3.oem3 (.const:ti_sysbios_rom_ROM_AONRTCChannelEnable)

.const:ti_sysbios_rom_ROM_AONRTCCompareValueSet 
*          0    00001498    00000004     
                  00001498    00000004     release_pem3.oem3 (.const:ti_sysbios_rom_ROM_AONRTCCompareValueSet)

.const:ti_sysbios_rom_ROM_AONRTCCurrentCompareValueGet 
*          0    0000149c    00000004     
                  0000149c    00000004     release_pem3.oem3 (.const:ti_sysbios_rom_ROM_AONRTCCurrentCompareValueGet)

.const:ti_sysbios_rom_ROM_AONRTCEventClear 
*          0    000014a0    00000004     
                  000014a0    00000004     release_pem3.oem3 (.const:ti_sysbios_rom_ROM_AONRTCEventClear)

.const:ti_sysbios_rom_ROM_ti_sysbios_family_arm_cc26xx_Timer_getCount64__E 
*          0    000014a4    00000004     
                  000014a4    00000004     release_pem3.oem3 (.const:ti_sysbios_rom_ROM_ti_sysbios_family_arm_cc26xx_Timer_getCount64__E)

.const:ti_sysbios_rom_ROM_ti_sysbios_family_arm_cc26xx_Timer_getCurrentTick__E 
*          0    000014a8    00000004     
                  000014a8    00000004     release_pem3.oem3 (.const:ti_sysbios_rom_ROM_ti_sysbios_family_arm_cc26xx_Timer_getCurrentTick__E)

.const:ti_sysbios_rom_ROM_ti_sysbios_family_arm_cc26xx_Timer_getMaxTicks__E 
*          0    000014ac    00000004     
                  000014ac    00000004     release_pem3.oem3 (.const:ti_sysbios_rom_ROM_ti_sysbios_family_arm_cc26xx_Timer_getMaxTicks__E)

.const:ti_sysbios_rom_ROM_ti_sysbios_family_arm_cc26xx_Timer_initDevice__I 
*          0    000014b0    00000004     
                  000014b0    00000004     release_pem3.oem3 (.const:ti_sysbios_rom_ROM_ti_sysbios_family_arm_cc26xx_Timer_initDevice__I)

.const:ti_sysbios_rom_ROM_ti_sysbios_family_arm_cc26xx_Timer_setNextTick__E 
*          0    000014b4    00000004     
                  000014b4    00000004     release_pem3.oem3 (.const:ti_sysbios_rom_ROM_ti_sysbios_family_arm_cc26xx_Timer_setNextTick__E)

.const:ti_sysbios_rom_ROM_ti_sysbios_family_arm_cc26xx_Timer_setThreshold__I 
*          0    000014b8    00000004     
                  000014b8    00000004     release_pem3.oem3 (.const:ti_sysbios_rom_ROM_ti_sysbios_family_arm_cc26xx_Timer_setThreshold__I)

.const:ti_sysbios_rom_ROM_ti_sysbios_family_arm_cc26xx_Timer_start__E 
*          0    000014bc    00000004     
                  000014bc    00000004     release_pem3.oem3 (.const:ti_sysbios_rom_ROM_ti_sysbios_family_arm_cc26xx_Timer_start__E)

.const:ti_sysbios_rom_ROM_ti_sysbios_family_arm_cc26xx_TimestampProvider_get32__E 
*          0    000014c0    00000004     
                  000014c0    00000004     release_pem3.oem3 (.const:ti_sysbios_rom_ROM_ti_sysbios_family_arm_cc26xx_TimestampProvider_get32__E)

.const:ti_sysbios_rom_ROM_xdc_runtime_Startup_getState__I 
*          0    000014c4    00000004     
                  000014c4    00000004     release_pem3.oem3 (.const:ti_sysbios_rom_ROM_xdc_runtime_Startup_getState__I)

.const:ti_sysbios_rom_ROM_xdc_runtime_System_SupportProxy_abort__E 
*          0    000014c8    00000004     
                  000014c8    00000004     release_pem3.oem3 (.const:ti_sysbios_rom_ROM_xdc_runtime_System_SupportProxy_abort__E)

.const:ti_sysbios_rom_ROM_xdc_runtime_System_SupportProxy_exit__E 
*          0    000014cc    00000004     
                  000014cc    00000004     release_pem3.oem3 (.const:ti_sysbios_rom_ROM_xdc_runtime_System_SupportProxy_exit__E)

.const:ti_sysbios_gates_GateMutex_Instance_State_sem__O 
*          0    000014d0    00000004     
                  000014d0    00000004     release_pem3.oem3 (.const:ti_sysbios_gates_GateMutex_Instance_State_sem__O)

.const:ti_sysbios_knl_Clock_Module_State_clockQ__O 
*          0    000014d4    00000004     
                  000014d4    00000004     release_pem3.oem3 (.const:ti_sysbios_knl_Clock_Module_State_clockQ__O)

.const:ti_sysbios_knl_Mailbox_Instance_State_dataQue__O 
*          0    000014d8    00000004     
                  000014d8    00000004     release_pem3.oem3 (.const:ti_sysbios_knl_Mailbox_Instance_State_dataQue__O)

.const:ti_sysbios_knl_Mailbox_Instance_State_dataSem__O 
*          0    000014dc    00000004     
                  000014dc    00000004     release_pem3.oem3 (.const:ti_sysbios_knl_Mailbox_Instance_State_dataSem__O)

.const:ti_sysbios_knl_Mailbox_Instance_State_freeQue__O 
*          0    000014e0    00000004     
                  000014e0    00000004     release_pem3.oem3 (.const:ti_sysbios_knl_Mailbox_Instance_State_freeQue__O)

.const:ti_sysbios_knl_Mailbox_Instance_State_freeSem__O 
*          0    000014e4    00000004     
                  000014e4    00000004     release_pem3.oem3 (.const:ti_sysbios_knl_Mailbox_Instance_State_freeSem__O)

.const:ti_sysbios_knl_Semaphore_Instance_State_pendQ__O 
*          0    000014e8    00000004     
                  000014e8    00000004     release_pem3.oem3 (.const:ti_sysbios_knl_Semaphore_Instance_State_pendQ__O)

.const:ti_sysbios_knl_Task_Module_State_inactiveQ__O 
*          0    000014ec    00000004     
                  000014ec    00000004     release_pem3.oem3 (.const:ti_sysbios_knl_Task_Module_State_inactiveQ__O)

.cinit     0    00011828    000004b8     
                  00011828    0000033a     (.cinit..data.load) [load image, compression = lzss]
                  00011b62    00000029     (.cinit..data:ti_sysbios_family_arm_m3_Hwi_Module__state__V.load) [load image, compression = lzss]
                  00011b8b    00000021     (.cinit..data:ti_sysbios_knl_Task_Module__state__V.load) [load image, compression = lzss]
                  00011bac    0000001f     (.cinit..data:ti_sysbios_BIOS_Module__state__V.load) [load image, compression = lzss]
                  00011bcb    0000001e     (.cinit..data:ti_sysbios_knl_Clock_Module__state__V.load) [load image, compression = lzss]
                  00011be9    0000000e     (.cinit..data:ti_sysbios_knl_Swi_Module__state__V.load) [load image, compression = lzss]
                  00011bf7    00000001     --HOLE-- [fill = 0]
                  00011bf8    0000000c     (__TI_handler_table)
                  00011c04    0000000b     (.cinit..data:ti_sysbios_family_arm_cc26xx_Timer_Module__state__V.load) [load image, compression = lzss]
                  00011c0f    0000000b     (.cinit..data:xdc_runtime_System_Module__state__V.load) [load image, compression = lzss]
                  00011c1a    00000006     --HOLE-- [fill = 0]
                  00011c20    00000008     (.cinit..TI.bound:dmaSpi0RxControlTableEntry.load) [load image, compression = zero_init]
                  00011c28    00000008     (.cinit..TI.bound:dmaSpi0TxControlTableEntry.load) [load image, compression = zero_init]
                  00011c30    00000008     (.cinit..TI.bound:dmaSpi1RxControlTableEntry.load) [load image, compression = zero_init]
                  00011c38    00000008     (.cinit..TI.bound:dmaSpi1TxControlTableEntry.load) [load image, compression = zero_init]
                  00011c40    00000008     (.cinit..bss.load) [load image, compression = zero_init]
                  00011c48    00000008     (.cinit..data:xdc_runtime_Memory_Module__state__V.load) [load image, compression = lzss]
                  00011c50    00000007     (.cinit..data:ti_sysbios_family_arm_cc26xx_TimestampProvider_Module__state__V.load) [load image, compression = lzss]
                  00011c57    00000007     (.cinit..data:xdc_runtime_Startup_Module__state__V.load) [load image, compression = lzss]
                  00011c5e    00000002     --HOLE-- [fill = 0]
                  00011c60    00000080     (__TI_cinit_table)

.init_array 
*          0    00000000    00000000     UNINITIALIZED

.ccfg      0    0001ffa8    00000058     
                  0001ffa8    00000058     ccfg.obj (.ccfg:retain)

.data:ti_sysbios_knl_Task_Module__state__V 
*          0    20000100    00000044     UNINITIALIZED
                  20000100    00000044     release_pem3.oem3 (.data:ti_sysbios_knl_Task_Module__state__V)

.data:ti_sysbios_family_arm_m3_Hwi_Module__state__V 
*          0    20000144    00000034     UNINITIALIZED
                  20000144    00000034     release_pem3.oem3 (.data:ti_sysbios_family_arm_m3_Hwi_Module__state__V)

.data:ti_sysbios_knl_Clock_Module__state__V 
*          0    20000178    0000002c     UNINITIALIZED
                  20000178    0000002c     release_pem3.oem3 (.data:ti_sysbios_knl_Clock_Module__state__V)

.data:ti_sysbios_BIOS_Module__state__V 
*          0    200001a4    00000024     UNINITIALIZED
                  200001a4    00000024     release_pem3.oem3 (.data:ti_sysbios_BIOS_Module__state__V)

.data:ti_sysbios_knl_Swi_Module__state__V 
*          0    200001c8    0000001c     UNINITIALIZED
                  200001c8    0000001c     release_pem3.oem3 (.data:ti_sysbios_knl_Swi_Module__state__V)

.data:ti_sysbios_family_arm_cc26xx_Timer_Module__state__V 
*          0    200001e4    00000008     UNINITIALIZED
                  200001e4    00000008     release_pem3.oem3 (.data:ti_sysbios_family_arm_cc26xx_Timer_Module__state__V)

.data:ti_sysbios_family_arm_cc26xx_TimestampProvider_Module__state__V 
*          0    200001ec    00000004     UNINITIALIZED
                  200001ec    00000004     release_pem3.oem3 (.data:ti_sysbios_family_arm_cc26xx_TimestampProvider_Module__state__V)

.data:xdc_runtime_Startup_Module__state__V 
*          0    200001f0    00000008     UNINITIALIZED
                  200001f0    00000008     release_pem3.oem3 (.data:xdc_runtime_Startup_Module__state__V)

.data:xdc_runtime_System_Module__state__V 
*          0    200001f8    00000008     UNINITIALIZED
                  200001f8    00000008     release_pem3.oem3 (.data:xdc_runtime_System_Module__state__V)

.data:xdc_runtime_Memory_Module__state__V 
*          0    20000200    00000004     UNINITIALIZED
                  20000200    00000004     release_pem3.oem3 (.data:xdc_runtime_Memory_Module__state__V)

.TI.bound:dmaSpi0RxControlTableEntry 
*          0    20000430    00000010     UNINITIALIZED
                  20000430    00000010     drivers_cc13x0.aem3 : SPICC26XXDMA.oem3 (.TI.bound:dmaSpi0RxControlTableEntry)

.TI.bound:dmaSpi1RxControlTableEntry 
*          0    20000500    00000010     UNINITIALIZED
                  20000500    00000010     drivers_cc13x0.aem3 : SPICC26XXDMA.oem3 (.TI.bound:dmaSpi1RxControlTableEntry)

.bss       0    20000520    00001c44     UNINITIALIZED
                  20000520    00000400     NodeRadioTask.obj (.bss:nodeRadioTaskStack)
                  20000920    00000400     rfPacketTx.obj (.bss:nodeTaskStack)
                  20000d20    000003d8     rf_multiMode_cc13x0.aem3 : RFCC26XX_multiMode.oem3 (.bss:$O1$$)
                  200010f8    00000200     release_pem3.oem3 (.bss:taskStackSection)
                  200012f8    000001c8     (.common:spiCC26XXDMAObjects)
                  200014c0    0000012c     (.common:uartCC26XXObjects)
                  200015ec    000000e0     (.common:i2cCC26xxObjects)
                  200016cc    000000c8     (.common:ti_sysbios_family_arm_m3_Hwi_dispatchTable)
                  20001794    00000004     SceAdc.obj (.bss)
                  20001798    000000a8     EasyLink.obj (.bss:rfObject)
                  20001840    000000a8     rfPacketTx.obj (.bss:rfObject)
                  200018e8    0000009c     NodeRadioTask.obj (.bss:currentRadioOperation)
                  20001984    00000098     NodeRadioTask.obj (.bss:latestRxPacket)
                  20001a1c    00000098     EasyLink.obj (.bss:rxBuffer)
                  20001ab4    00000098     EasyLink.obj (.bss:rxPacket$3)
                  20001b4c    0000008c     EasyLink.obj (.bss:txBuffer)
                  20001bd8    00000080     CC1350STK.obj (.bss:uartStringBuf)
                  20001c58    00000050     (.common:nodeRadioTask)
                  20001ca8    00000050     (.common:nodeTask)
                  20001cf8    0000003c     NodeRadioTask.obj (.bss:nodeRadioTaskParams)
                  20001d34    0000003c     rfPacketTx.obj (.bss:nodeTaskParams)
                  20001d70    00000030     EasyLink.obj (.bss:EasyLink_cmdPropRxAdv)
                  20001da0    00000030     scif_framework.obj (.bss:scifData)
                  20001dd0    00000028     EasyLink.obj (.bss:EasyLink_cmdPropRadioSetup)
                  20001df8    00000024     (.common:fastReportTimeoutClock)
                  20001e1c    00000020     EasyLink.obj (.bss:EasyLink_cmdPropTxAdv)
                  20001e3c    00000020     SensorI2C.obj (.bss:buffer)
                  20001e5c    00000020     rfPacketTx.obj (.bss:packet)
                  20001e7c    00000020     ExtFlash.obj (.bss:spiParams)
                  20001e9c    00000020     (.common:uartCC26XXRingBuffer)
                  20001ebc    00000020     (.common:udmaObjects)
                  20001edc    0000001c     EasyLink.obj (.bss:EasyLink_cmdPropCs)
                  20001ef8    0000001c     scif_framework.obj (.bss:hwiCtrlReady)
                  20001f14    0000001c     scif_framework.obj (.bss:hwiTaskAlert)
                  20001f30    0000001c     SensorI2C.obj (.bss:mutex)
                  20001f4c    0000001c     rfPacketTx.obj (.bss)
                  20001f68    0000001c     EasyLink.obj (.bss:rfParams)
                  20001f84    0000001c     scif_framework.obj (.bss:semCtrlReady)
                  20001fa0    0000001c     (.common:radioAccessSem)
                  20001fbc    0000001c     (.common:radioResultSem)
                  20001fd8    00000018     EasyLink.obj (.bss)
                  20001ff0    00000018     EasyLink.obj (.bss:EasyLink_cmdFs)
                  20002008    00000018     SensorBmp280.obj (.bss:calData)
                  20002020    00000015     NodeRadioTask.obj (.bss)
                  20002035    00000001     SensorHdc1000.obj (.bss)
                  20002036    00000002     SensorTmp007.obj (.bss)
                  20002038    00000014     rf_multiMode_cc13x0.aem3 : RFCC26XX_multiMode.oem3 (.bss:RF_ratSyncCmd)
                  2000204c    00000014     driverlib.lib : osc.obj (.bss:oscHfGlobals)
                  20002060    00000014     (.common:nodeEvent)
                  20002074    00000014     (.common:radioOperationEvent)
                  20002088    00000010     EasyLink.obj (.bss:EasyLink_RF_prop)
                  20002098    00000010     EasyLink.obj (.bss:EasyLink_params)
                  200020a8    00000010     SensorMpu9250.obj (.bss)
                  200020b8    00000010     SensorI2C.obj (.bss:i2cParams)
                  200020c8    0000000c     rfPacketTx.obj (.bss:buttonPinState)
                  200020d4    0000000c     NodeRadioTask.obj (.bss:dmSensorPacket)
                  200020e0    0000000c     rfPacketTx.obj (.bss:ledPinState)
                  200020ec    0000000c     SensorMpu9250.obj (.bss:pinGpioState)
                  200020f8    0000000c     ExtFlash.obj (.bss:pinState)
                  20002104    0000000c     EasyLink.obj (.bss:rxStatistics)
                  20002110    0000000c     (.common:displayUartObject)
                  2000211c    0000000c     (.common:latestAccelerationAdcValue)
                  20002128    00000008     dpl_cc13x0.aem3 : PowerCC26XX_tirtos.oem3 (.bss:$O1$$)
                  20002130    00000008     EasyLink.obj (.bss:dataQueue)
                  20002138    00000008     driverlib.lib : sys_ctrl.obj (.bss:powerQualGlobals)
                  20002140    00000006     SensorI2C.obj (.bss)
                  20002146    00000004     SensorHdc1000.obj (.bss:data)
                  2000214a    00000004     ExtFlash.obj (.bss:infoBuf)
                  2000214e    00000004     SensorMpu9250.obj (.bss:rawData$2)
                  20002152    00000001     rf_multiMode_cc13x0.aem3 : RFCC26XX_multiMode.oem3 (.bss)
                  20002153    00000001     (.common:driverlib_release_0_3_05_20_00001)
                  20002154    00000004     (.common:ClockP_tickPeriod)
                  20002158    00000004     (.common:latestHumidAdcValue)
                  2000215c    00000004     (.common:latestPressAdcValue)
                  20002160    00000004     (.common:latestTempLocalAdcValue)

.data      0    20003168    00000a06     UNINITIALIZED
                  20003168    00000114     drivers_cc13x0.aem3 : PINCC26XX.oem3 (.data:$O1$$)
                  2000327c    00000114                         : PowerCC26XX.oem3 (.data:PowerCC26XX_module)
                  20003390    00000090     easylink_config.obj (.data:EasyLink_supportedPhys)
                  20003420    00000088     rom_sysbios.aem3 : rom_sysbios.obj (.data:$O1$$)
                  200034a8    0000006c     smartrf_settings_predefined.obj (.data:pOverrides_sl_lr)
                  20003514    00000060     smartrf_settings_predefined.obj (.data:pOverrides_lrm)
                  20003574    0000005c     smartrf_settings_predefined.obj (.data:pOverrides_fsk)
                  200035d0    00000058     smartrf_settings.obj (.data:pOverrides)
                  20003628    00000054     release_pem3.oem3 (.data:ti_sysbios_gates_GateMutex_Object__table__V)
                  2000367c    00000050     smartrf_settings_predefined.obj (.data:RF_PROP_txPowerTable)
                  200036cc    0000004c     release_pem3.oem3 (.data:ti_sysbios_knl_Task_Object__table__V)
                  20003718    00000048     release_pem3.oem3 (.data:ti_sysbios_family_arm_cc26xx_Timer_Object__table__V)
                  20003760    00000040     EasyLink.obj (.data:addrFilterTable)
                  200037a0    00000030     smartrf_settings_predefined.obj (.data:RF_cmdPropRxAdv_preDef)
                  200037d0    00000030     rfPacketTx.obj (.data)
                  20003800    00000030     release_pem3.oem3 (.data:ti_sysbios_knl_Swi_Module_State_0_readyQ__A)
                  20003830    00000030     release_pem3.oem3 (.data:ti_sysbios_knl_Swi_Object__table__V)
                  20003860    00000030     release_pem3.oem3 (.data:ti_sysbios_knl_Task_Module_State_0_readyQ__A)
                  20003890    00000028     smartrf_settings.obj (.data:RF_cmdPropRadioDivSetup)
                  200038b8    00000028     smartrf_settings_predefined.obj (.data:RF_cmdPropRadioDivSetup_fsk)
                  200038e0    00000028     smartrf_settings_predefined.obj (.data:RF_cmdPropRadioDivSetup_lrm)
                  20003908    00000028     smartrf_settings_predefined.obj (.data:RF_cmdPropRadioDivSetup_sl_lr)
                  20003930    00000028     ExtFlash.obj (.data:flashInfo)
                  20003958    00000020     release_pem3.oem3 (.data:ti_sysbios_knl_Clock_Object__table__V)
                  20003978    00000020     release_pem3.oem3 (.data:xdc_runtime_Error_IgnoreBlock)
                  20003998    0000001c     EasyLink.obj (.data:txTestCmd$4)
                  200039b4    00000018     smartrf_settings.obj (.data:RF_cmdFs)
                  200039cc    00000018     smartrf_settings_predefined.obj (.data:RF_cmdFs_preDef)
                  200039e4    00000018     smartrf_settings.obj (.data:RF_cmdPropTx)
                  200039fc    00000018     EasyLink.obj (.data:rxTestCmd$5)
                  20003a14    00000018     release_pem3.oem3 (.data:ti_sysbios_family_arm_m3_Hwi_Object__table__V)
                  20003a2c    00000018     release_pem3.oem3 (.data:ti_sysbios_heaps_HeapMem_Object__table__V)
                  20003a44    00000017     EasyLink.obj (.data)
                  20003a5b    00000001     NodeRadioTask.obj (.data)
                  20003a5c    00000010     smartrf_settings.obj (.data:RF_prop)
                  20003a6c    00000010     smartrf_settings_predefined.obj (.data:RF_prop_fsk)
                  20003a7c    00000010     smartrf_settings_predefined.obj (.data:RF_prop_lrm)
                  20003a8c    00000010     smartrf_settings_predefined.obj (.data:RF_prop_sl_lr)
                  20003a9c    0000000c     ExtFlash.obj (.data)
                  20003aa8    0000000c     SensorMpu9250.obj (.data:MpuPinTable)
                  20003ab4    0000000c     rfPacketTx.obj (.data:buttonPinTable)
                  20003ac0    0000000c     scif_framework.obj (.data)
                  20003acc    00000009     SensorMpu9250.obj (.data)
                  20003ad5    00000001     drivers_cc13x0.aem3 : I2C.oem3 (.data)
                  20003ad6    00000002     release_pem3.oem3 (.data:ti_sysbios_family_arm_m3_Hwi_Module_State_0_excActive__A)
                  20003ad8    00000008     rtsv7M3_T_le_eabi.lib : _lock.c.obj (.data:$O1$$)
                  20003ae0    00000008     ExtFlash.obj (.data:BoardFlashPinTable)
                  20003ae8    00000008     rfPacketTx.obj (.data:pinTable)
                  20003af0    00000008     release_pem3.oem3 (.data:ti_sysbios_family_arm_m3_Hwi_Module__root__V)
                  20003af8    00000008     release_pem3.oem3 (.data:ti_sysbios_gates_GateHwi_Module__root__V)
                  20003b00    00000008     release_pem3.oem3 (.data:ti_sysbios_gates_GateMutex_Module__root__V)
                  20003b08    00000008     release_pem3.oem3 (.data:ti_sysbios_hal_Hwi_Module__root__V)
                  20003b10    00000008     release_pem3.oem3 (.data:ti_sysbios_heaps_HeapMem_Module__root__V)
                  20003b18    00000008     release_pem3.oem3 (.data:ti_sysbios_knl_Clock_Module__root__V)
                  20003b20    00000008     release_pem3.oem3 (.data:ti_sysbios_knl_Event_Module__root__V)
                  20003b28    00000008     release_pem3.oem3 (.data:ti_sysbios_knl_Mailbox_Module__root__V)
                  20003b30    00000008     release_pem3.oem3 (.data:ti_sysbios_knl_Queue_Module__root__V)
                  20003b38    00000008     release_pem3.oem3 (.data:ti_sysbios_knl_Semaphore_Module__root__V)
                  20003b40    00000008     release_pem3.oem3 (.data:ti_sysbios_knl_Swi_Module__root__V)
                  20003b48    00000008     release_pem3.oem3 (.data:ti_sysbios_knl_Task_Module__root__V)
                  20003b50    00000008     release_pem3.oem3 (.data:xdc_runtime_System_Module_State_0_atexitHandlers__A)
                  20003b58    00000004     rtsv7M3_T_le_eabi.lib : rand.c.obj (.data)
                  20003b5c    00000004                           : stkdepth_vars.c.obj (.data)
                  20003b60    00000004     release_pem3.oem3 (.data:ti_sysbios_family_arm_m3_Hwi_Module_State_0_excContext__A)
                  20003b64    00000004     release_pem3.oem3 (.data:ti_sysbios_family_arm_m3_Hwi_Module_State_0_excStack__A)
                  20003b68    00000004     release_pem3.oem3 (.data:ti_sysbios_knl_Task_Module_State_0_idleTask__A)
                  20003b6c    00000001     drivers_cc13x0.aem3 : SPI.oem3 (.data)
                  20003b6d    00000001                         : UART.oem3 (.data)

.priheap   0    20002168    00001000     UNINITIALIZED
                  20002168    00001000     --HOLE--

.stack     0    20004c00    00000400     UNINITIALIZED
                  20004c00    00000400     --HOLE--

.bootVecs 
*          0    00000000    00000008     DSECT
                  00000000    00000008     boot.aem3 : boot.oem3 (.bootVecs)

.resetVecs 
*          0    00000000    0000003c     
                  00000000    0000003c     release_pem3.oem3 (.resetVecs)

.vecs      0    20000000    000000c8     NOLOAD SECTION
                  20000000    000000c8     release_pem3.oem3 (.vecs)

xdc.meta   0    00000000    00000112     COPY SECTION
                  00000000    00000112     release_pem3.oem3 (xdc.meta)

xdc.noload 
*          0    00000000    00000000     COPY SECTION

.TI.bound:dmaSpi0TxControlTableEntry 
*          0    20000440    00000010     UNINITIALIZED
                  20000440    00000010     drivers_cc13x0.aem3 : SPICC26XXDMA.oem3 (.TI.bound:dmaSpi0TxControlTableEntry)

.TI.bound:dmaSpi1TxControlTableEntry 
*          0    20000510    00000010     UNINITIALIZED
                  20000510    00000010     drivers_cc13x0.aem3 : SPICC26XXDMA.oem3 (.TI.bound:dmaSpi1TxControlTableEntry)

.binit     0    00000000    00000000     

.text.1    0    0000003c    00000fc4     
                  0000003c    00000690     EasyLink.obj (.text:EasyLink_init)
                  000006cc    00000008     (.tramp.ti_sysbios_knl_Semaphore_pend__E.1)
                  000006d4    00000008     (.tramp.ti_sysbios_knl_Semaphore_post__E.1)
                  000006dc    00000008     (.tramp.ti_sysbios_knl_Semaphore_create.1)
                  000006e4    0000048c     rf_multiMode_cc13x0.aem3 : RFCC26XX_multiMode.oem3 (.text:RF_fsmActiveState)
                  00000b70    00000008     (.tramp.ti_sysbios_family_arm_m3_Hwi_restoreFxn__E.1)
                  00000b78    00000330     rfPacketTx.obj (.text:nodeTaskFunction)
                  00000ea8    00000008     (.tramp.xdc_runtime_System_abort__E.1)
                  00000eb0    00000008     (.tramp.ti_sysbios_knl_Clock_setTimeout__E.1)
                  00000eb8    00000008     (.tramp.ti_sysbios_knl_Clock_start__E.1)
                  00000ec0    00000008     (.tramp.ti_sysbios_knl_Task_sleep__E.1)
                  00000ec8    00000136     drivers_cc13x0.aem3 : UARTCC26XX.oem3 (.text:UARTCC26XX_read)
                  00000ffe    00000002     display.aem3 : DisplayUart.oem3 (.text:DisplayUartMin_clear)

.text.2    0    00001380    00000004     
                  00001380    00000004     dpl_cc13x0.aem3 : PowerCC26XX_tirtos.oem3 (.text:CPUwfi)

.text.3    0    00001404    00000002     
                  00001404    00000002     display.aem3 : DisplayUart.oem3 (.text:DisplayUartMin_clearLines)

.text.4    0    000014f0    0000bdcc     
                  000014f0    00000320     rom_sysbios.aem3 : rom_sysbios.obj (.text:xdc_runtime_System_doPrint__I)
                  00001810    0000030c     drivers_cc13x0.aem3 : PowerCC26XX_calibrateRCOSC.oem3 (.text:PowerCC26XX_auxISR)
                  00001b1c    00000288     rf_multiMode_cc13x0.aem3 : RFCC26XX_multiMode.oem3 (.text:RF_scheduleCmd)
                  00001da4    00000254     rfPacketTx.obj (.text:updateDisplay)
                  00001ff8    00000238     driverlib.lib : sys_ctrl.obj (.text:NOROM_SysCtrlSetRechargeBeforePowerDown)
                  00002230    00000238     drivers_cc13x0.aem3 : SPICC26XXDMA.oem3 (.text:SPICC26XXDMA_transfer)
                  00002468    00000238     NodeRadioTask.obj (.text:nodeRadioTaskFunction)
                  000026a0    00000230     EasyLink.obj (.text:enableTestMode)
                  000028d0    00000224     drivers_cc13x0.aem3 : PowerCC26XX.oem3 (.text:Power_sleep)
                  00002af4    00000208     EasyLink.obj (.text:EasyLink_transmit)
                  00002cfc    000001fc     rtsv7M3_T_le_eabi.lib : s_exp2.c.obj (.text:exp2)
                  00002ef8    000001d8     rf_multiMode_cc13x0.aem3 : RFCC26XX_multiMode.oem3 (.text:RF_open)
                  000030d0    000001c4     EasyLink.obj (.text:EasyLink_receiveAsync)
                  00003294    000001c0     rfPacketTx.obj (.text:mainThread)
                  00003454    000001b6     rtsv7M3_T_le_eabi.lib : fd_add_t2.asm.obj (.text)
                  0000360a    00000002     display.aem3 : DisplayUart.oem3 (.text:DisplayUartMin_init)
                  0000360c    000001b4     EasyLink.obj (.text:rxDoneCallback)
                  000037c0    000001b0     drivers_cc13x0.aem3 : PINCC26XX.oem3 (.text:PIN_init)
                  00003970    00000194     SensorBmp280.obj (.text:SensorBmp280_convert)
                  00003b04    00000190     drivers_cc13x0.aem3 : PowerCC26XX_calibrateRCOSC.oem3 (.text:PowerCC26XX_doCalibrate)
                  00003c94    00000180     NodeRadioTask.obj (.text:sendDmPacket)
                  00003e14    0000017c     release_pem3.oem3 (.text:xdc_runtime_System_printfExtend__I)
                  00003f90    00000170     rtsv7M3_T_le_eabi.lib : e_sqrt.c.obj (.text:sqrt)
                  00004100    00000164     drivers_cc13x0.aem3 : UARTCC26XX.oem3 (.text:UARTCC26XX_open)
                  00004264    00000158                         : SPICC26XXDMA.oem3 (.text:SPICC26XXDMA_initIO)
                  000043bc    00000154     rf_multiMode_cc13x0.aem3 : RFCC26XX_multiMode.oem3 (.text:RF_fsmSetupState)
                  00004510    0000014c     drivers_cc13x0.aem3 : I2CCC26XX.oem3 (.text:I2CCC26XX_open)
                  0000465c    00000148                         : UARTCC26XX.oem3 (.text:UARTCC26XX_hwiIntFxn)
                  000047a4    00000136     rtsv7M3_T_le_eabi.lib : fd_div_t2.asm.obj (.text)
                  000048da    00000002     rf_multiMode_cc13x0.aem3 : RFCC26XX_multiMode.oem3 (.text:RF_defaultCallback)
                  000048dc    00000134                              : RFCC26XX_multiMode.oem3 (.text:RF_abortCmd)
                  00004a10    0000012c     driverlib.lib : setup_rom.obj (.text:NOROM_SetupAfterColdResetWakeupFromShutDownCfg3)
                  00004b3c    00000128     smartrf_settings.obj (.text:rf_patch_rfe_genfsk)
                  00004c64    00000128     smartrf_settings_predefined.obj (.text:rf_patch_rfe_genfsk)
                  00004d8c    00000128     smartrf_settings_predefined.obj (.text:rf_patch_rfe_lrm)
                  00004eb4    00000128     smartrf_settings_predefined.obj (.text:rf_patch_rfe_sl_longrange)
                  00004fdc    00000124     rf_multiMode_cc13x0.aem3 : RFCC26XX_multiMode.oem3 (.text:RF_dispatchNextCmd)
                  00005100    00000120     drivers_cc13x0.aem3 : I2CCC26XX.oem3 (.text:I2CCC26XX_hwiFxn)
                  00005220    0000011c                         : SPICC26XXDMA.oem3 (.text:SPICC26XXDMA_open)
                  0000533c    00000118     rf_multiMode_cc13x0.aem3 : RFCC26XX_multiMode.oem3 (.text:RF_radioOpDoneCb)
                  00005454    00000114     drivers_cc13x0.aem3 : PowerCC26XX.oem3 (.text:Power_init)
                  00005568    00000110                         : PINCC26XX.oem3 (.text:PINCC26XX_setIoCfg)
                  00005678    00000110     rf_multiMode_cc13x0.aem3 : RFCC26XX_multiMode.oem3 (.text:RF_close)
                  00005788    0000010c     drivers_cc13x0.aem3 : SPICC26XXDMA.oem3 (.text:SPICC26XXDMA_configDMA)
                  00005894    00000100     scif_framework.obj (.text:scifInit)
                  00005994    000000fc     rtsv7M3_T_le_eabi.lib : fd_mul_t2.asm.obj (.text)
                  00005a90    000000fa                           : fs_add_t2.asm.obj (.text)
                  00005b8a    00000002                           : _lock.c.obj (.text:_nop)
                  00005b8c    000000f0     EasyLink.obj (.text:EasyLink_enableRxAddrFilter)
                  00005c7c    000000f0     driverlib.lib : setup_rom.obj (.text:NOROM_SetupAfterColdResetWakeupFromShutDownCfg2)
                  00005d6c    000000ec     rom_sysbios.aem3 : rom_sysbios.obj (.text:pthread_create)
                  00005e58    000000e8     EasyLink.obj (.text:EasyLink_setCtrl)
                  00005f40    000000e8     rf_multiMode_cc13x0.aem3 : RFCC26XX_multiMode.oem3 (.text:RF_fsmPowerUpState)
                  00006028    000000e8     rom_sysbios.aem3 : rom_sysbios.obj (.text:ti_sysbios_knl_Event_pend__E)
                  00006110    000000e4     dpl_cc13x0.aem3 : PowerCC26XX_tirtos.oem3 (.text:PowerCC26XX_standbyPolicy)
                  000061f4    000000e4     drivers_cc13x0.aem3 : SPICC26XXDMA.oem3 (.text:SPICC26XXDMA_transferCancel)
                  000062d8    000000e2                         : UARTCC26XX.oem3 (.text:UARTCC26XX_write)
                  000063ba    00000002     SceAdc.obj (.text:ctrlReadyCallback)
                  000063bc    000000e0     scif_framework.obj (.text:scifCtrlTasksNbl)
                  0000649c    000000d8     rfPacketTx.obj (.text:countSteps)
                  00006574    000000d6     drivers_cc13x0.aem3 : I2CCC26XX.oem3 (.text:I2CCC26XX_transfer)
                  0000664a    00000002                         : PowerCC26XX.oem3 (.text:emptyClockFunc)
                  0000664c    000000d4     driverlib.lib : rfc.obj (.text:NOROM_RFCRfTrimRead)
                  00006720    000000d4     rf_multiMode_cc13x0.aem3 : RFCC26XX_multiMode.oem3 (.text:RF_pendCmd)
                  000067f4    000000cc     driverlib.lib : rfc.obj (.text:NOROM_RFCRTrim)
                  000068c0    000000cc     rf_multiMode_cc13x0.aem3 : RFCC26XX_multiMode.oem3 (.text:RF_swiHw)
                  0000698c    000000c8     driverlib.lib : setup.obj (.text:TrimAfterColdResetWakeupFromShutDown)
                  00006a54    000000c4     rf_multiMode_cc13x0.aem3 : RFCC26XX_multiMode.oem3 (.text:RF_control)
                  00006b18    000000c4     smartrf_settings_predefined.obj (.text:rf_patch_mce_sl_longrange)
                  00006bdc    000000bc     drivers_cc13x0.aem3 : PowerCC26XX.oem3 (.text:Power_releaseDependency)
                  00006c98    000000b8     rf_multiMode_cc13x0.aem3 : RFCC26XX_multiMode.oem3 (.text:RF_postCmd)
                  00006d50    000000b4     drivers_cc13x0.aem3 : PowerCC26XX.oem3 (.text:Power_setDependency)
                  00006e04    000000b0     NodeRadioTask.obj (.text:NodeRadioTask_init)
                  00006eb4    000000b0     rf_multiMode_cc13x0.aem3 : RFCC26XX_multiMode.oem3 (.text:RF_hwiCpe0Active)
                  00006f64    000000b0     NodeRadioTask.obj (.text:rxDoneCallback)
                  00007014    000000a8     driverlib.lib : setup.obj (.text:NOROM_SetupTrimDevice)
                  000070bc    000000a8     rf_multiMode_cc13x0.aem3 : RFCC26XX_multiMode.oem3 (.text:RF_ratRestartChannels)
                  00007164    000000a4     driverlib.lib : setup_rom.obj (.text:NOROM_SetupAfterColdResetWakeupFromShutDownCfg1)
                  00007208    000000a4     drivers_cc13x0.aem3 : UARTCC26XX.oem3 (.text:UARTCC26XX_initHw)
                  000072ac    000000a4     SensorMpu9250.obj (.text:sensorMagInit)
                  00007350    000000a4     drivers_cc13x0.aem3 : PowerCC26XX.oem3 (.text:switchXOSCHFclockFunc)
                  000073f4    000000a0     rfPacketTx.obj (.text:NodeTask_init)
                  00007494    000000a0     drivers_cc13x0.aem3 : PINCC26XX.oem3 (.text:PIN_open)
                  00007534    000000a0                         : SPICC26XXDMA.oem3 (.text:SPICC26XXDMA_hwiFxn)
                  000075d4    000000a0     SensorI2C.obj (.text:SensorI2C_select)
                  00007674    000000a0     auto_init.aem3 : auto_init.oem3 (.text)
                  00007714    000000a0     rom_sysbios.aem3 : rom_sysbios.obj (.text:ti_sysbios_knl_Task_setPri__E)
                  000077b4    0000009c     rf_multiMode_cc13x0.aem3 : RFCC26XX_multiMode.oem3 (.text:RF_calculateDispatchTime)
                  00007850    0000009c     rtsv7M3_T_le_eabi.lib : memcpy_t2.asm.obj (.text)
                  000078ec    00000098     drivers_cc13x0.aem3 : UARTCC26XX.oem3 (.text:UARTCC26XX_initIO)
                  00007984    00000098     smartrf_settings.obj (.text:configureGenfskPatch)
                  00007a1c    00000098     smartrf_settings_predefined.obj (.text:configureGenfskPatch)
                  00007ab4    00000098     smartrf_settings_predefined.obj (.text:configureLrmPatch)
                  00007b4c    00000098     smartrf_settings_predefined.obj (.text:configureSlLongrangePatch)
                  00007be4    00000098     rom_sysbios.aem3 : rom_sysbios.obj (.text:ti_sysbios_knl_Clock_workFuncDynamic__E)
                  00007c7c    00000096     rtsv7M3_T_le_eabi.lib : ull_div_t2.asm.obj (.text)
                  00007d12    00000092                           : fs_div_t2.asm.obj (.text)
                  00007da4    00000090     drivers_cc13x0.aem3 : I2CCC26XX.oem3 (.text:I2CCC26XX_cancel)
                  00007e34    00000090     rf_multiMode_cc13x0.aem3 : RFCC26XX_multiMode.oem3 (.text:RF_discardPendCmd)
                  00007ec4    00000090     drivers_cc13x0.aem3 : SPICC26XXDMA.oem3 (.text:SPICC26XXDMA_control)
                  00007f54    00000090     SensorMpu9250.obj (.text:SensorMpu9250_reset)
                  00007fe4    00000090     rom_sysbios.aem3 : rom_sysbios.obj (.text:ti_sysbios_family_arm_cc26xx_Timer_start__E)
                  00008074    0000008e     drivers_cc13x0.aem3 : UARTCC26XX.oem3 (.text:UARTCC26XX_writeCancel)
                  00008102    00000002     smartrf_settings.obj (.text:enterGenfskSysPatch)
                  00008104    0000008c     drivers_cc13x0.aem3 : I2CCC26XX.oem3 (.text:I2CCC26XX_primeTransfer)
                  00008190    0000008c                         : SPICC26XXDMA.oem3 (.text:SPICC26XXDMA_swiFxn)
                  0000821c    0000008c     scif_framework.obj (.text:scifInitIo)
                  000082a8    00000088     rom_sysbios.aem3 : rom_sysbios.obj (.text:_pthread_removeThreadKeys)
                  00008330    00000088     SensorMpu9250.obj (.text:sensorMpu9250WakeUp)
                  000083b8    00000086     rtsv7M3_T_le_eabi.lib : fd_cmp_t2.asm.obj (.text:__aeabi_cdcmple)
                  0000843e    00000086                           : fd_cmp_t2.asm.obj (.text:__aeabi_cdrcmple)
                  000084c4    00000084     CC1350STK_fxns.obj (.text:CC1350STK_sendExtFlashByte)
                  00008548    00000084     rf_multiMode_cc13x0.aem3 : RFCC26XX_multiMode.oem3 (.text:RF_issueRadioFreeCb)
                  000085cc    00000084     drivers_cc13x0.aem3 : UARTCC26XX.oem3 (.text:UARTCC26XX_close)
                  00008650    00000080                         : UARTCC26XX.oem3 (.text:writeTxFifoFlush)
                  000086d0    0000007e     rf_multiMode_cc13x0.aem3 : RFCC26XX_multiMode.oem3 (.text:RF_verifyGap)
                  0000874e    00000002     smartrf_settings_predefined.obj (.text:enterGenfskSysPatch)
                  00008750    0000007c     rf_multiMode_cc13x0.aem3 : RFCC26XX_multiMode.oem3 (.text:RF_ratFreeChannel)
                  000087cc    0000007c     SensorHdc1000.obj (.text:SensorHdc1000_read)
                  00008848    0000007c     main_tirtos.obj (.text:main)
                  000088c4    0000007a     rtsv7M3_T_le_eabi.lib : fs_mul_t2.asm.obj (.text)
                  0000893e    0000007a                           : memset_t2.asm.obj (.text)
                  000089b8    00000078     SensorHdc1000.obj (.text:SensorHdc1000_convert)
                  00008a30    00000076     rom_sysbios.aem3 : rom_sysbios.obj (.text:ti_sysbios_heaps_HeapMem_allocUnprotected__E)
                  00008aa6    00000002     smartrf_settings_predefined.obj (.text:enterLrmSysPatch)
                  00008aa8    00000074     driverlib.lib : setup_rom.obj (.text:NOROM_SetupSetVddrLevel)
                  00008b1c    00000074     rf_multiMode_cc13x0.aem3 : RFCC26XX_multiMode.oem3 (.text:RF_yield)
                  00008b90    00000074     SensorMpu9250.obj (.text:SensorMpu9250_test)
                  00008c04    00000074     NodeRadioTask.obj (.text:resendPacket)
                  00008c78    00000072     SensorOpt3001.obj (.text:SensorOpt3001_read)
                  00008cea    00000002     smartrf_settings_predefined.obj (.text:enterSlLongrangeSysPatch)
                  00008cec    00000070     rf_multiMode_cc13x0.aem3 : RFCC26XX_multiMode.oem3 (.text:RF_hwiHw)
                  00008d5c    00000070     SensorI2C.obj (.text:SensorI2C_open)
                  00008dcc    00000070     scif_framework.obj (.text:scifGetTaskStruct)
                  00008e3c    00000070     rom_sysbios.aem3 : rom_sysbios.obj (.text:ti_sysbios_knl_Event_post__E)
                  00008eac    0000006e     rtsv7M3_T_le_eabi.lib : fd_tos_t2.asm.obj (.text)
                  00008f1a    00000002                           : div0.asm.obj (.text)
                  00008f1c    0000006d     rom_sysbios.aem3 : rom_sysbios.obj (.text:xdc_runtime_System_formatNum__I)
                  00008f89    00000001     --HOLE-- [fill = 0]
                  00008f8a    00000002                      : rom_sysbios.obj (.text:ti_sysbios_BIOS_linkedWithIncorrectBootLibrary__E)
                  00008f8c    0000006c     drivers_cc13x0.aem3 : PowerCC26XX_calibrateRCOSC.oem3 (.text:PowerCC26XX_initiateCalibration)
                  00008ff8    0000006c     rf_multiMode_cc13x0.aem3 : RFCC26XX_multiMode.oem3 (.text:RF_initRadioSetup)
                  00009064    0000006c     SensorMpu9250.obj (.text:SensorMpu9250_accSetRange)
                  000090d0    00000068     drivers_cc13x0.aem3 : I2CCC26XX.oem3 (.text:I2CCC26XX_swiFxn)
                  00009138    00000068     driverlib.lib : setup_rom.obj (.text:NOROM_SetupGetTrimForAmpcompCtrl)
                  000091a0    00000068                   : setup_rom.obj (.text:NOROM_SetupGetTrimForAnabypassValue1)
                  00009208    00000068                   : sys_ctrl.obj (.text:NOROM_SysCtrlAdjustRechargeAfterPowerDown)
                  00009270    00000068                   : sys_ctrl.obj (.text:NOROM_SysCtrl_DCDC_VoltageConditionalControl)
                  000092d8    00000068     drivers_cc13x0.aem3 : PINCC26XX.oem3 (.text:PIN_add)
                  00009340    00000068     rtsv7M3_T_le_eabi.lib : copy_decompress_lzss.c.obj (.text:decompress:lzss:__TI_decompress_lzss)
                  000093a8    00000068     ExtFlash.obj (.text:extFlashVerifyPart)
                  00009410    00000068     drivers_cc13x0.aem3 : PowerCC26XX.oem3 (.text:lfClockReadyCallback)
                  00009478    00000064     ExtFlash.obj (.text:ExtFlash_open)
                  000094dc    00000064     driverlib.lib : osc.obj (.text:NOROM_OSCHF_AttemptToSwitchToXosc)
                  00009540    00000064     NodeRadioTask.obj (.text:NodeRadioTask_sendAdcData)
                  000095a4    00000064     rf_multiMode_cc13x0.aem3 : RFCC26XX_multiMode.oem3 (.text:RF_checkForPreemption)
                  00009608    00000064                              : RFCC26XX_multiMode.oem3 (.text:RF_dispatchNextEvent)
                  0000966c    00000064     SensorI2C.obj (.text:SensorI2C_writeReg)
                  000096d0    00000064     drivers_cc13x0.aem3 : PowerCC26XX.oem3 (.text:configureXOSCHF)
                  00009734    00000060     driverlib.lib : osc.obj (.text:NOROM_OSCClockSourceSet)
                  00009794    00000060     drivers_cc13x0.aem3 : PowerCC26XX.oem3 (.text:PowerCC26XX_calibrate)
                  000097f4    00000060     rf_multiMode_cc13x0.aem3 : RFCC26XX_multiMode.oem3 (.text:RF_getCurrentTime)
                  00009854    00000060     SensorOpt3001.obj (.text:SensorOpt3001_convert)
                  000098b4    00000060     SensorTmp007.obj (.text:SensorTmp007_enable)
                  00009914    00000060     drivers_cc13x0.aem3 : UARTCC26XX.oem3 (.text:UARTCC26XX_control)
                  00009974    00000060     rtsv7M3_T_le_eabi.lib : fs_cmp_t2.asm.obj (.text:__aeabi_cfrcmple)
                  000099d4    00000060     EasyLink.obj (.text:calculateCmdTime)
                  00009a34    0000005e     drivers_cc13x0.aem3 : UARTCC26XX.oem3 (.text:UARTCC26XX_swiIntFxn)
                  00009a92    00000002     release_pem3.oem3 (.text:ti_sysbios_BIOS_nullFunc__I)
                  00009a94    0000005c     display.aem3 : Display.oem3 (.text:Display_doOpen)
                  00009af0    0000005c     drivers_cc13x0.aem3 : I2CCC26XX.oem3 (.text:I2CCC26XX_close)
                  00009b4c    0000005c                         : PowerCC26XX_calibrateRCOSC.oem3 (.text:PowerCC26XX_RCOSC_clockFunc)
                  00009ba8    0000005c     rf_multiMode_cc13x0.aem3 : RFCC26XX_multiMode.oem3 (.text:RF_hwiCpe0PowerFsm)
                  00009c04    0000005c                              : RFCC26XX_multiMode.oem3 (.text:RF_syncCb)
                  00009c60    0000005c     drivers_cc13x0.aem3 : UDMACC26XX.oem3 (.text:UDMACC26XX_open)
                  00009cbc    0000005c     SensorMpu9250.obj (.text:sensorMagEnable)
                  00009d18    0000005c     rom_sysbios.aem3 : rom_sysbios.obj (.text:ti_sysbios_heaps_HeapMem_initPrimary__I)
                  00009d74    0000005c     release_pem3.oem3 (.text:xdc_runtime_Startup_getState__I)
                  00009dd0    0000005a     SensorBmp280.obj (.text:SensorBmp280_read)
                  00009e2a    0000005a     EasyLink.obj (.text:createTxAdvFromTx)
                  00009e84    00000058     drivers_cc13x0.aem3 : PINCC26XX.oem3 (.text:PIN_remove)
                  00009edc    00000058     rf_multiMode_cc13x0.aem3 : RFCC26XX_multiMode.oem3 (.text:RF_cmdDispatchTime)
                  00009f34    00000058     drivers_cc13x0.aem3 : SPICC26XXDMA.oem3 (.text:SPICC26XXDMA_initHw)
                  00009f8c    00000058     SensorUtil.obj (.text:SensorUtil_convertToLe)
                  00009fe4    00000058     rom_sysbios.aem3 : rom_sysbios.obj (.text:pthread_exit)
                  0000a03c    00000058     scif_framework.obj (.text:scifReinitIo)
                  0000a094    00000058     scif_framework.obj (.text:scifUninitIo)
                  0000a0ec    00000058     rom_sysbios.aem3 : rom_sysbios.obj (.text:ti_sysbios_heaps_HeapMem_alloc__E)
                  0000a144    00000054     rf_multiMode_cc13x0.aem3 : RFCC26XX_multiMode.oem3 (.text:RF_applyRfCorePatch)
                  0000a198    00000054     SceAdc.obj (.text:SceAdc_init)
                  0000a1ec    00000054     SensorI2C.obj (.text:SensorI2C_writeRead)
                  0000a240    00000052     drivers_cc13x0.aem3 : SPICC26XXDMA.oem3 (.text:SPICC26XXDMA_close)
                  0000a292    00000002     rom_sysbios.aem3 : rom_sysbios.obj (.text:ti_sysbios_knl_Clock_triggerFunc__I)
                  0000a294    00000050     dpl_cc13x0.aem3 : ClockP_tirtos.oem3 (.text:ClockP_construct)
                  0000a2e4    00000050     driverlib.lib : setup_rom.obj (.text:NOROM_SetupSetCacheModeAccordingToCcfgSetting)
                  0000a334    00000050     rf_multiMode_cc13x0.aem3 : RFCC26XX_multiMode.oem3 (.text:RF_fsmXOSCState)
                  0000a384    00000050                              : RFCC26XX_multiMode.oem3 (.text:RF_wakeupNotification)
                  0000a3d4    00000050     SensorMpu9250.obj (.text:sensorMpu9250SelectAxes)
                  0000a424    00000050     SensorMpu9250.obj (.text:sensorMpuSleep)
                  0000a474    00000050     drivers_cc13x0.aem3 : UARTCC26XX.oem3 (.text:startTxFifoEmptyClk)
                  0000a4c4    0000004c     CC1350STK_fxns.obj (.text:CC1350STK_wakeUpExtFlash)
                  0000a510    0000004c     ExtFlash.obj (.text:ExtFlash_waitReady)
                  0000a55c    0000004c     drivers_cc13x0.aem3 : I2CCC26XX.oem3 (.text:I2CCC26XX_initHw)
                  0000a5a8    0000004c     SensorI2C.obj (.text:SensorI2C_read)
                  0000a5f4    0000004c     SensorI2C.obj (.text:SensorI2C_write)
                  0000a640    0000004c     ExtFlash.obj (.text:Spi_open)
                  0000a68c    0000004c     rtsv7M3_T_le_eabi.lib : cpy_tbl.c.obj (.text:copy_in)
                  0000a6d8    0000004c     SensorMpu9250.obj (.text:sensorMpu9250SetBypass)
                  0000a724    0000004a     display.aem3 : DisplayUart.oem3 (.text:DisplayUartMin_open)
                  0000a76e    0000004a     drivers_cc13x0.aem3 : UARTCC26XX.oem3 (.text:UARTCC26XX_readCancel)
                  0000a7b8    00000048     ExtFlash.obj (.text:ExtFlash_readInfo)
                  0000a800    00000048     drivers_cc13x0.aem3 : PINCC26XX.oem3 (.text:PIN_setOutputEnable)
                  0000a848    00000048     SensorMpu9250.obj (.text:SensorMpu9250_enable)
                  0000a890    00000048     rtsv7M3_T_le_eabi.lib : fd_toi_t2.asm.obj (.text)
                  0000a8d8    00000048     drivers_cc13x0.aem3 : UARTCC26XX.oem3 (.text:writeFinishedDoCallback)
                  0000a920    00000046     display.aem3 : DisplayUart.oem3 (.text:DisplayUartMin_vprintf)
                  0000a966    00000046     SensorMpu9250.obj (.text:SensorMpu9250_accRead)
                  0000a9ac    00000044     drivers_cc13x0.aem3 : RingBuf.oem3 (.text:RingBuf_put)
                  0000a9f0    00000044                         : SPICC26XXDMA.oem3 (.text:SPICC26XXDMA_csnCallback)
                  0000aa34    00000044     SensorBmp280.obj (.text:SensorBmp280_init)
                  0000aa78    00000044     boot.aem3 : boot.oem3 (.text)
                  0000aabc    00000044     rtsv7M3_T_le_eabi.lib : fd_tou_t2.asm.obj (.text)
                  0000ab00    00000044     scif.obj (.text:scifStartRtcTicks)
                  0000ab44    00000040     CC1350STK_fxns.obj (.text:CC1350STK_shutDownExtFlash)
                  0000ab84    00000040     drivers_cc13x0.aem3 : I2C.oem3 (.text:I2C_init)
                  0000abc4    00000040                         : I2C.oem3 (.text:I2C_open)
                  0000ac04    00000040     driverlib.lib : chipinfo.obj (.text:NOROM_ChipInfo_GetHwRevision)
                  0000ac44    00000040     drivers_cc13x0.aem3 : PINCC26XX.oem3 (.text:PINCC26XX_getConfig)
                  0000ac84    00000040                         : PINCC26XX.oem3 (.text:PIN_swi)
                  0000acc4    00000040                         : SPI.oem3 (.text:SPI_init)
                  0000ad04    00000040                         : SPI.oem3 (.text:SPI_open)
                  0000ad44    00000040                         : UART.oem3 (.text:UART_init)
                  0000ad84    00000040                         : UART.oem3 (.text:UART_open)
                  0000adc4    00000040     ExtFlash.obj (.text:extFlashPowerStandby)
                  0000ae04    00000040     rtsv7M3_T_le_eabi.lib : u_divt2.asm.obj (.text)
                  0000ae44    00000040     scif.obj (.text:scifStartRtcTicksNow)
                  0000ae84    00000040     rom_sysbios.aem3 : rom_sysbios.obj (.text:ti_sysbios_family_arm_cc26xx_Timer_setThreshold__I)
                  0000aec4    0000003e     dpl_cc13x0.aem3 : HwiP_tirtos.oem3 (.text:HwiP_construct)
                  0000af02    0000003e     drivers_cc13x0.aem3 : RingBuf.oem3 (.text:RingBuf_get)
                  0000af40    0000003c     driverlib.lib : osc.obj (.text:NOROM_OSC_HPOSCRelativeFrequencyOffsetGet)
                  0000af7c    0000003c                   : rfc.obj (.text:NOROM_RFCSynthPowerDown)
                  0000afb8    0000003c     drivers_cc13x0.aem3 : PowerCC26XX.oem3 (.text:PowerCC26XX_isStableXOSC_HF)
                  0000aff4    0000003c     rf_multiMode_cc13x0.aem3 : RFCC26XX_multiMode.oem3 (.text:RF_cmdGet)
                  0000b030    0000003c                              : RFCC26XX_multiMode.oem3 (.text:RF_cmdStoreEvents)
                  0000b06c    0000003c     dpl_cc13x0.aem3 : SwiP_tirtos.oem3 (.text:SwiP_construct)
                  0000b0a8    0000003c     drivers_cc13x0.aem3 : PowerCC26XX.oem3 (.text:disableLfClkQualifiersEnableClkLoss)
                  0000b0e4    0000003c     rom_sysbios.aem3 : rom_sysbios.obj (.text:ti_sysbios_family_arm_m3_Hwi_construct2__E)
                  0000b120    00000038     ExtFlash.obj (.text:ExtFlash_close)
                  0000b158    00000038     drivers_cc13x0.aem3 : PINCC26XX.oem3 (.text:PIN_setConfig)
                  0000b190    00000038                         : PINCC26XX.oem3 (.text:PIN_setInterrupt)
                  0000b1c8    00000038                         : PINCC26XX.oem3 (.text:PIN_setOutputValue)
                  0000b200    00000038     rf_multiMode_cc13x0.aem3 : RFCC26XX_multiMode.oem3 (.text:RF_checkCmdFsError)
                  0000b238    00000038                              : RFCC26XX_multiMode.oem3 (.text:RF_powerConstraintRelease)
                  0000b270    00000038     SensorMpu9250.obj (.text:SensorMpu9250_init)
                  0000b2a8    00000038     SensorOpt3001.obj (.text:SensorOpt3001_enable)
                  0000b2e0    00000038     ExtFlash.obj (.text:Spi_read)
                  0000b318    00000038     ExtFlash.obj (.text:Spi_write)
                  0000b350    00000038     drivers_cc13x0.aem3 : UARTCC26XX.oem3 (.text:readData)
                  0000b388    00000038     rtsv7M3_T_le_eabi.lib : fs_tod_t2.asm.obj (.text)
                  0000b3c0    00000038                           : fs_toi_t2.asm.obj (.text)
                  0000b3f8    00000038     drivers_cc13x0.aem3 : UARTCC26XX.oem3 (.text:writeData)
                  0000b430    00000036     SensorBmp280.obj (.text:SensorBmp280_enable)
                  0000b466    00000036     drivers_cc13x0.aem3 : UDMACC26XX.oem3 (.text:UDMACC26XX_close)
                  0000b49c    00000036     rom_sysbios.aem3 : rom_sysbios.obj (.text:ti_sysbios_family_arm_cc26xx_Timer_setNextTick__E)
                  0000b4d2    00000002                      : rom_sysbios.obj (.text:xdc_runtime_SysCallback_defaultAbort)
                  0000b4d4    00000034     driverlib.lib : osc.obj (.text:NOROM_OSCHF_SwitchToRcOscTurnOffXosc)
                  0000b508    00000034     drivers_cc13x0.aem3 : PowerCC26XX.oem3 (.text:Power_releaseConstraint)
                  0000b53c    00000034     SensorHdc1000.obj (.text:SensorHdc1000_init)
                  0000b570    00000034     rfPacketTx.obj (.text:buttonCallback)
                  0000b5a4    00000034     drivers_cc13x0.aem3 : PowerCC26XX.oem3 (.text:notify)
                  0000b5d8    00000034     rtsv7M3_T_le_eabi.lib : rand.c.obj (.text:rand)
                  0000b60c    00000034     scif_framework.obj (.text:scifAckAlertEvents)
                  0000b640    00000034     scif_framework.obj (.text:scifOsalInit)
                  0000b674    00000034     SceAdc.obj (.text:taskAlertCallback)
                  0000b6a8    00000034     rom_sysbios.aem3 : rom_sysbios.obj (.text:ti_sysbios_family_arm_cc26xx_Timer_initDevice__I)
                  0000b6dc    00000034                      : rom_sysbios.obj (.text:ti_sysbios_knl_Swi_setPri__E)
                  0000b710    00000034                      : rom_sysbios.obj (.text:usleep)
                  0000b744    00000032     ExtFlash.obj (.text:ExtFlash_powerDown)
                  0000b776    00000002     rom_sysbios.aem3 : rom_sysbios.obj (.text:xdc_runtime_SysCallback_defaultExit)
                  0000b778    00000030     driverlib.lib : chipinfo.obj (.text:NOROM_ChipInfo_GetChipType)
                  0000b7a8    00000030                   : setup_rom.obj (.text:NOROM_SetupGetTrimForRadcExtCfg)
                  0000b7d8    00000030                   : setup_rom.obj (.text:NOROM_SetupSetAonRtcSubSecInc)
                  0000b808    00000030     drivers_cc13x0.aem3 : PINCC26XX.oem3 (.text:PINCC26XX_setMux)
                  0000b838    00000030                         : PowerCC26XX.oem3 (.text:Power_setConstraint)
                  0000b868    00000030     SensorHdc1000.obj (.text:SensorHdc1000_start)
                  0000b898    00000030     SensorMpu9250.obj (.text:SensorMpu9250_powerOn)
                  0000b8c8    00000030     scif_framework.obj (.text:osalRegisterCtrlReadyInt)
                  0000b8f8    00000030     scif_framework.obj (.text:osalRegisterTaskAlertInt)
                  0000b928    00000030     drivers_cc13x0.aem3 : UARTCC26XX.oem3 (.text:readData2RingBuf)
                  0000b958    00000030     release_pem3.oem3 (.text:ti_sysbios_BIOS_atExitFunc__I)
                  0000b988    00000030     release_pem3.oem3 (.text:ti_sysbios_BIOS_startFunc__I)
                  0000b9b8    00000030     rom_sysbios.aem3 : rom_sysbios.obj (.text:ti_sysbios_family_arm_cc26xx_Timer_getCurrentTick__E)
                  0000b9e8    0000002e     rf_multiMode_cc13x0.aem3 : RFCC26XX_multiMode.oem3 (.text:RF_queueEnd)
                  0000ba16    0000002e     ExtFlash.obj (.text:extFlashPowerDown)
                  0000ba44    0000002e     rtsv7M3_T_le_eabi.lib : i_tofd_t2.asm.obj (.text)
                  0000ba72    00000002     rom_sysbios.aem3 : rom_sysbios.obj (.text:xdc_runtime_SysCallback_defaultPutch)
                  0000ba74    0000002c     driverlib.lib : ddi.obj (.text:NOROM_DDI32RegWrite)
                  0000baa0    0000002c                   : osc.obj (.text:NOROM_OSCClockSourceGet)
                  0000bacc    0000002c                   : rfc.obj (.text:NOROM_RFCCpePatchReset)
                  0000baf8    0000002c     rf_multiMode_cc13x0.aem3 : RFCC26XX_multiMode.oem3 (.text:RF_calculateDeltaTimeUs)
                  0000bb24    0000002c                              : RFCC26XX_multiMode.oem3 (.text:RF_executeDirectImmediateCmd)
                  0000bb50    0000002c     dpl_cc13x0.aem3 : SemaphoreP_tirtos.oem3 (.text:SemaphoreP_constructBinary)
                  0000bb7c    0000002c                     : SemaphoreP_tirtos.oem3 (.text:SemaphoreP_createBinary)
                  0000bba8    0000002c     rom_sysbios.aem3 : rom_sysbios.obj (.text:_pthread_delete$44)
                  0000bbd4    0000002c     EasyLink.obj (.text:asyncCmdCallback)
                  0000bc00    0000002c     scif_framework.obj (.text:osalIndicateCtrlReady)
                  0000bc2c    0000002c     scif_framework.obj (.text:osalLockCtrlTaskNbl)
                  0000bc58    0000002c     rom_sysbios.aem3 : rom_sysbios.obj (.text:pthread_setcancelstate)
                  0000bc84    0000002c                      : rom_sysbios.obj (.text:ti_sysbios_knl_Clock_getTicksUntilInterrupt__E)
                  0000bcb0    0000002c     release_pem3.oem3 (.text:ti_sysbios_knl_Event_construct)
                  0000bcdc    0000002c     rom_sysbios.aem3 : rom_sysbios.obj (.text:ti_sysbios_knl_Event_pendTimeout__I)
                  0000bd08    0000002a     display.aem3 : Display.oem3 (.text:Display_doPrintf)
                  0000bd32    0000002a     rom_sysbios.aem3 : rom_sysbios.obj (.text:ti_sysbios_knl_Clock_getTimeout__E)
                  0000bd5c    0000002a                      : rom_sysbios.obj (.text:xdc_runtime_System_putchar__I)
                  0000bd86    00000002     --HOLE-- [fill = 0]
                  0000bd88    00000028     display.aem3 : Display.oem3 (.text:Display_doInit)
                  0000bdb0    00000028     driverlib.lib : aon_batmon.obj (.text:NOROM_AONBatMonTemperatureGetDegC)
                  0000bdd8    00000028                   : rfc.obj (.text:NOROM_RFCDoorbellSendTo)
                  0000be00    00000028                   : rfc.obj (.text:NOROM_RFCOverrideSearch)
                  0000be28    00000028     drivers_cc13x0.aem3 : PowerCC26XX.oem3 (.text:Power_registerNotify)
                  0000be50    00000028     rf_multiMode_cc13x0.aem3 : RFCC26XX_multiMode.oem3 (.text:RF_runCmd)
                  0000be78    00000028     drivers_cc13x0.aem3 : SPICC26XXDMA.oem3 (.text:SPICC26XXDMA_flushFifos)
                  0000bea0    00000028     driverlib.lib : adi.obj (.text:SafeHapiVoid)
                  0000bec8    00000024     drivers_cc13x0.aem3 : List.oem3 (.text:List_remove)
                  0000beec    00000024                         : PINCC26XX.oem3 (.text:PINCC26XX_setIoCfgMux)
                  0000bf10    00000024     rf_multiMode_cc13x0.aem3 : RFCC26XX_multiMode.oem3 (.text:RF_cmdAlloc)
                  0000bf34    00000024                              : RFCC26XX_multiMode.oem3 (.text:RF_invokeGlobalCallback)
                  0000bf58    00000024                              : RFCC26XX_multiMode.oem3 (.text:RF_isStateTransitionAllowed)
                  0000bf7c    00000024     SceAdc.obj (.text:SceAdc_setReportInterval)
                  0000bfa0    00000024     SensorMpu9250.obj (.text:SensorMpu9250_Callback)
                  0000bfc4    00000024     rom_sysbios.aem3 : rom_sysbios.obj (.text:_pthread_cleanupFxn)
                  0000bfe8    00000024     EasyLink.obj (.text:isAddrSizeValid)
                  0000c00c    00000024     rom_sysbios.aem3 : rom_sysbios.obj (.text:pthread_attr_init)
                  0000c030    00000024     rtsv7M3_T_le_eabi.lib : u_tofs_t2.asm.obj (.text)
                  0000c054    00000024     release_pem3.oem3 (.text:ti_sysbios_BIOS_registerRTSLock__I)
                  0000c078    00000024     release_pem3.oem3 (.text:ti_sysbios_BIOS_removeRTSLock__I)
                  0000c09c    00000024     rom_sysbios.aem3 : rom_sysbios.obj (.text:ti_sysbios_family_arm_cc26xx_Timer_getMaxTicks__E)
                  0000c0c0    00000022     drivers_cc13x0.aem3 : List.oem3 (.text:List_get)
                  0000c0e2    00000022                         : List.oem3 (.text:List_insert)
                  0000c104    00000022                         : List.oem3 (.text:List_put)
                  0000c126    00000022                         : List.oem3 (.text:List_putHead)
                  0000c148    00000020     driverlib.lib : rfc.obj (.text:NOROM_RFCAdi3VcoLdoVoltageMode)
                  0000c168    00000020                   : setup_rom.obj (.text:NOROM_SetupGetTrimForXoscHfCtl)
                  0000c188    00000020     drivers_cc13x0.aem3 : PowerCC26XX.oem3 (.text:Power_unregisterNotify)
                  0000c1a8    00000020     rf_multiMode_cc13x0.aem3 : RFCC26XX_multiMode.oem3 (.text:RF_clkPowerUp)
                  0000c1c8    00000020                              : RFCC26XX_multiMode.oem3 (.text:RF_hwiCpe0ChangePhy)
                  0000c1e8    00000020                              : RFCC26XX_multiMode.oem3 (.text:RF_ratIsRunning)
                  0000c208    00000020     NodeRadioTask.obj (.text:returnRadioOperationStatus)
                  0000c228    00000020     rtsv7M3_T_le_eabi.lib : u_tofd_t2.asm.obj (.text)
                  0000c248    00000020     drivers_cc13x0.aem3 : UARTCC26XX.oem3 (.text:threadSafeStdbyDisRelease)
                  0000c268    00000020                         : UARTCC26XX.oem3 (.text:threadSafeStdbyDisSet)
                  0000c288    00000020     release_pem3.oem3 (.text:ti_sysbios_BIOS_rtsLock__I)
                  0000c2a8    00000020     rom_sysbios.aem3 : rom_sysbios.obj (.text:ti_sysbios_family_arm_cc26xx_Timer_dynamicStub__E)
                  0000c2c8    00000020                      : rom_sysbios.obj (.text:ti_sysbios_knl_Clock_stop__E)
                  0000c2e8    00000020                      : rom_sysbios.obj (.text:ti_sysbios_knl_Event_checkEvents__I)
                  0000c308    00000020                      : rom_sysbios.obj (.text:xdc_runtime_Error_policyMin__E)
                  0000c328    0000001e     drivers_cc13x0.aem3 : PINCC26XX.oem3 (.text:PIN_close)
                  0000c346    0000001e                         : PowerCC26XX.oem3 (.text:Power_getTransitionLatency)
                  0000c364    0000001e     rf_multiMode_cc13x0.aem3 : RFCC26XX_multiMode.oem3 (.text:RF_preemptClient)
                  0000c382    0000001e     ExtFlash.obj (.text:SSIBusy)
                  0000c3a0    0000001c     CC1350STK.obj (.text:CC1350STK_initGeneral)
                  0000c3bc    0000001c     driverlib.lib : chipinfo.obj (.text:NOROM_ChipInfo_GetChipFamily)
                  0000c3d8    0000001c                   : setup_rom.obj (.text:NOROM_SetupGetTrimForAmpcompTh2)
                  0000c3f4    0000001c                   : setup_rom.obj (.text:NOROM_SetupGetTrimForRcOscLfRtuneCtuneTrim)
                  0000c410    0000001c     drivers_cc13x0.aem3 : PINCC26XX.oem3 (.text:PIN_hwi)
                  0000c42c    0000001c     rf_multiMode_cc13x0.aem3 : RFCC26XX_multiMode.oem3 (.text:RF_clkInactivityCallback)
                  0000c448    0000001c                              : RFCC26XX_multiMode.oem3 (.text:RF_powerConstraintSet)
                  0000c464    0000001c     SensorI2C.obj (.text:SensorI2C_readReg)
                  0000c480    0000001c     ExtFlash.obj (.text:Spi_close)
                  0000c49c    0000001c     smartrf_settings.obj (.text:enterGenfskCpePatch)
                  0000c4b8    0000001c     smartrf_settings_predefined.obj (.text:enterGenfskCpePatch)
                  0000c4d4    0000001c     smartrf_settings_predefined.obj (.text:enterLrmCpePatch)
                  0000c4f0    0000001c     smartrf_settings_predefined.obj (.text:enterSlLongrangeCpePatch)
                  0000c50c    0000001c     rom_sysbios.aem3 : rom_sysbios.obj (.text:ti_sysbios_family_arm_m3_Hwi_clearInterrupt__E)
                  0000c528    0000001c                      : rom_sysbios.obj (.text:ti_sysbios_knl_Swi_construct2__E)
                  0000c544    0000001a     SensorMpu9250.obj (.text:SensorMpu9250_powerIsOn)
                  0000c55e    00000018     EasyLink.obj (.text:ChipInfo_ChipFamilyIs_CC13x2_CC26x2)
                  0000c576    00000018     EasyLink.obj (.text:ChipInfo_ChipFamilyIs_CC26x0R2)
                  0000c58e    00000002     --HOLE-- [fill = 0]
                  0000c590    00000018     driverlib.lib : aon_rtc.obj (.text:NOROM_AONRTCCurrentCompareValueGet)
                  0000c5a8    00000018                   : chipinfo.obj (.text:NOROM_ChipInfo_GetPackageType)
                  0000c5c0    00000018                   : osc.obj (.text:NOROM_OSCHF_TurnOnXosc)
                  0000c5d8    00000018                   : rfc.obj (.text:NOROM_RFCCpeIntGetAndClear)
                  0000c5f0    00000018                   : setup_rom.obj (.text:NOROM_SetupGetTrimForAdcShModeEn)
                  0000c608    00000018                   : setup_rom.obj (.text:NOROM_SetupGetTrimForAdcShVbufEn)
                  0000c620    00000018                   : setup_rom.obj (.text:NOROM_SetupGetTrimForAmpcompTh1)
                  0000c638    00000018                   : setup_rom.obj (.text:NOROM_SetupGetTrimForDblrLoopFilterResetVoltage)
                  0000c650    00000018                   : setup_rom.obj (.text:NOROM_SetupGetTrimForRcOscLfIBiasTrim)
                  0000c668    00000018                   : setup_rom.obj (.text:NOROM_SetupGetTrimForXoscLfRegulatorAndCmirrwrRatio)
                  0000c680    00000018     drivers_cc13x0.aem3 : PINCC26XX.oem3 (.text:PIN_getConfig)
                  0000c698    00000018     dpl_cc13x0.aem3 : PowerCC26XX_tirtos.oem3 (.text:PowerCC26XX_schedulerDisable)
                  0000c6b0    00000018                     : PowerCC26XX_tirtos.oem3 (.text:PowerCC26XX_schedulerRestore)
                  0000c6c8    00000018     drivers_cc13x0.aem3 : PowerCC26XX.oem3 (.text:Power_idleFunc)
                  0000c6e0    00000018     rf_multiMode_cc13x0.aem3 : RFCC26XX_multiMode.oem3 (.text:RF_swiFsm)
                  0000c6f8    00000018     ExtFlash.obj (.text:Spi_flash)
                  0000c710    00000018     drivers_cc13x0.aem3 : UART.oem3 (.text:UART_Params_init)
                  0000c728    00000018     rtsv7M3_T_le_eabi.lib : args_main.c.obj (.text:_args_main)
                  0000c740    00000018     rfPacketTx.obj (.text:adcCallback)
                  0000c758    00000018     rtsv7M3_T_le_eabi.lib : ll_mul_t2.asm.obj (.text)
                  0000c770    00000018     scif_framework.obj (.text:scifClearAlertIntSource)
                  0000c788    00000018     release_pem3.oem3 (.text:ti_sysbios_BIOS_rtsUnlock__I)
                  0000c7a0    00000018     rom_sysbios.aem3 : rom_sysbios.obj (.text:ti_sysbios_knl_Swi_or__E)
                  0000c7b8    00000018                      : rom_sysbios.obj (.text:ti_sysbios_rts_ti_ReentSupport_getReent__F)
                  0000c7d0    00000018                      : rom_sysbios.obj (.text:xdc_runtime_Error_init__E)
                  0000c7e8    00000016     EasyLink.obj (.text:ChipInfo_ChipFamilyIs_CC26x0)
                  0000c7fe    00000016     display.aem3 : DisplayUart.oem3 (.text:DisplayUartMin_close)
                  0000c814    00000016     driverlib.lib : chipinfo.obj (.text:NOROM_ThisLibraryIsFor_CC13x0_HwRev20AndLater_HaltIfViolated)
                  0000c82a    00000016     rf_multiMode_cc13x0.aem3 : RFCC26XX_multiMode.oem3 (.text:RF_restartClockTimeout)
                  0000c840    00000016     rom_sysbios.aem3 : rom_sysbios.obj (.text:_pthread_cleanup_pop)
                  0000c856    00000016     release_pem3.oem3 (.text:ti_sysbios_BIOS_exitFunc__I)
                  0000c86c    00000016     scif_framework.obj (.text:ti_sysbios_family_arm_m3_Hwi_Params_init)
                  0000c882    00000016     rfPacketTx.obj (.text:ti_sysbios_knl_Clock_Params_init)
                  0000c898    00000016     NodeRadioTask.obj (.text:ti_sysbios_knl_Event_Params_init)
                  0000c8ae    00000016     rfPacketTx.obj (.text:ti_sysbios_knl_Event_Params_init)
                  0000c8c4    00000016     EasyLink.obj (.text:ti_sysbios_knl_Semaphore_Params_init)
                  0000c8da    00000016     NodeRadioTask.obj (.text:ti_sysbios_knl_Semaphore_Params_init)
                  0000c8f0    00000016     SensorI2C.obj (.text:ti_sysbios_knl_Semaphore_Params_init)
                  0000c906    00000016     scif_framework.obj (.text:ti_sysbios_knl_Semaphore_Params_init)
                  0000c91c    00000016     NodeRadioTask.obj (.text:ti_sysbios_knl_Task_Params_init)
                  0000c932    00000016     rfPacketTx.obj (.text:ti_sysbios_knl_Task_Params_init)
                  0000c948    00000014     NodeRadioTask.obj (.text:AONBatMonBatteryVoltageGet)
                  0000c95c    00000014     EasyLink.obj (.text:EasyLink_Params_init)
                  0000c970    00000014     drivers_cc13x0.aem3 : List.oem3 (.text:List_clearList)
                  0000c984    00000014     driverlib.lib : aon_rtc.obj (.text:NOROM_AONRTCCurrent64BitValueGet)
                  0000c998    00000014     drivers_cc13x0.aem3 : PINCC26XX.oem3 (.text:PINCC26XX_getInputValue)
                  0000c9ac    00000014                         : PINCC26XX.oem3 (.text:PINCC26XX_getOutputValue)
                  0000c9c0    00000014     rf_multiMode_cc13x0.aem3 : RFCC26XX_multiMode.oem3 (.text:RF_Params_init)
                  0000c9d4    00000014                              : RFCC26XX_multiMode.oem3 (.text:RF_dbellSyncOnAck)
                  0000c9e8    00000014                              : RFCC26XX_multiMode.oem3 (.text:RF_ratGetChannel)
                  0000c9fc    00000014                              : RFCC26XX_multiMode.oem3 (.text:RF_schResolveConflict)
                  0000ca10    00000014     drivers_cc13x0.aem3 : SPI.oem3 (.text:SPI_Params_init)
                  0000ca24    00000014     SceAdc.obj (.text:SceAdc_registerAdcCallback)
                  0000ca38    00000014     SensorI2C.obj (.text:SensorI2C_deselect)
                  0000ca4c    00000014     drivers_cc13x0.aem3 : PowerCC26XX.oem3 (.text:configureRFCoreClocks)
                  0000ca60    00000014     ExtFlash.obj (.text:extFlashDeselect)
                  0000ca74    00000014     ExtFlash.obj (.text:extFlashSelect)
                  0000ca88    00000014     scif_framework.obj (.text:osalIndicateTaskAlert)
                  0000ca9c    00000014     rom_sysbios.aem3 : rom_sysbios.obj (.text:pthread_attr_setschedparam)
                  0000cab0    00000014     scif_framework.obj (.text:scifOsalRegisterCtrlReadyCallback)
                  0000cac4    00000014     scif_framework.obj (.text:scifOsalRegisterTaskAlertCallback)
                  0000cad8    00000014     rtsv7M3_T_le_eabi.lib : strlen.c.obj (.text:strlen)
                  0000caec    00000014     release_pem3.oem3 (.text:ti_sysbios_knl_Clock_doTick__I)
                  0000cb00    00000014     rom_sysbios.aem3 : rom_sysbios.obj (.text:ti_sysbios_knl_Event_Instance_init__E)
                  0000cb14    00000012     drivers_cc13x0.aem3 : RingBuf.oem3 (.text:RingBuf_construct)
                  0000cb26    00000012     dpl_cc13x0.aem3 : SemaphoreP_tirtos.oem3 (.text:SemaphoreP_pend)
                  0000cb38    00000012     rom_sysbios.aem3 : rom_sysbios.obj (.text:_pthread_runStub$44)
                  0000cb4a    00000012     scif_framework.obj (.text:scifStartTasksNbl)
                  0000cb5c    00000012     scif.obj (.text:scifTaskResourceInit)
                  0000cb6e    00000012     release_pem3.oem3 (.text:xdc_runtime_Startup_exec__I)
                  0000cb80    00000010     dpl_cc13x0.aem3 : ClockP_tirtos.oem3 (.text:ClockP_isActive)
                  0000cb90    00000010                     : HwiP_tirtos.oem3 (.text:HwiP_Params_init)
                  0000cba0    00000010     drivers_cc13x0.aem3 : I2C.oem3 (.text:I2C_Params_init)
                  0000cbb0    00000010     driverlib.lib : rfc.obj (.text:NOROM_RFCHwIntGetAndClear)
                  0000cbc0    00000010                   : rfc.obj (.text:NOROM_RFCRfTrimSet)
                  0000cbd0    00000010                   : setup_rom.obj (.text:NOROM_SetupGetTrimForXoscHfFastStart)
                  0000cbe0    00000010                   : setup_rom.obj (.text:NOROM_SetupGetTrimForXoscHfIbiastherm)
                  0000cbf0    00000010     drivers_cc13x0.aem3 : PINCC26XX.oem3 (.text:PINCC26XX_getPinCount)
                  0000cc00    00000010     rf_multiMode_cc13x0.aem3 : RFCC26XX_multiMode.oem3 (.text:RF_dbellSubmitCmdAsync)
                  0000cc10    00000010                              : RFCC26XX_multiMode.oem3 (.text:RF_isClientOwner)
                  0000cc20    00000010     dpl_cc13x0.aem3 : SwiP_tirtos.oem3 (.text:SwiP_Params_init)
                  0000cc30    00000010     smartrf_settings.obj (.text:applyGenfskPatch)
                  0000cc40    00000010     smartrf_settings_predefined.obj (.text:applyGenfskPatch)
                  0000cc50    00000010     smartrf_settings_predefined.obj (.text:applyLrmPatch)
                  0000cc60    00000010     smartrf_settings_predefined.obj (.text:applySlLongrangePatch)
                  0000cc70    00000010     rfPacketTx.obj (.text:fastReportTimeoutCallback)
                  0000cc80    00000010     drivers_cc13x0.aem3 : I2CCC26XX.oem3 (.text:i2cPostNotify)
                  0000cc90    00000010     rom_sysbios.aem3 : rom_sysbios.obj (.text:ti_sysbios_family_arm_m3_Hwi_post__E)
                  0000cca0    00000010     drivers_cc13x0.aem3 : UARTCC26XX.oem3 (.text:uartPostNotify)
                  0000ccb0    00000010     rom_sysbios.aem3 : rom_sysbios.obj (.text:xdc_runtime_SysCallback_putch__E)
                  0000ccc0    00000010                      : rom_sysbios.obj (.text:xdc_runtime_SysCallback_ready__E)
                  0000ccd0    00000010                      : rom_sysbios.obj (.text:xdc_runtime_System_vsnprintf__E)
                  0000cce0    0000000e     driverlib.lib : vims.obj (.text:NOROM_VIMSModeGet)
                  0000ccee    0000000e     rf_multiMode_cc13x0.aem3 : RFCC26XX_multiMode.oem3 (.text:RF_getSwitchingTimeInUs)
                  0000ccfc    0000000e     drivers_cc13x0.aem3 : SPICC26XXDMA.oem3 (.text:SPICC26XXDMA_init)
                  0000cd0a    0000000e     rtsv7M3_T_le_eabi.lib : copy_decompress_none.c.obj (.text:decompress:none:__TI_decompress_none)
                  0000cd18    0000000e     scif_framework.obj (.text:osalCtrlReadyIsr)
                  0000cd26    0000000e     scif_framework.obj (.text:osalTaskAlertIsr)
                  0000cd34    0000000e     rom_sysbios.aem3 : rom_sysbios.obj (.text:pthread_attr_setdetachstate)
                  0000cd42    0000000e     scif.obj (.text:scifTaskResourceUninit)
                  0000cd50    0000000e     rom_sysbios.aem3 : rom_sysbios.obj (.text:ti_sysbios_family_arm_cc26xx_TimestampProvider_get32__E)
                  0000cd5e    0000000c     driverlib.lib : cpu.obj (.text:NOROM_CPUcpsid)
                  0000cd6a    0000000c                   : cpu.obj (.text:NOROM_CPUcpsie)
                  0000cd76    0000000c                   : osc.obj (.text:NOROM_OSC_HPOSCRelativeFrequencyOffsetToRFCoreFormatConvert)
                  0000cd82    0000000c     drivers_cc13x0.aem3 : PINCC26XX.oem3 (.text:PIN_registerIntCb)
                  0000cd8e    00000002     --HOLE-- [fill = 0]
                  0000cd90    0000000c                         : PowerCC26XX.oem3 (.text:Power_getConstraintMask)
                  0000cd9c    0000000c                         : PowerCC26XX.oem3 (.text:Power_getDependencyCount)
                  0000cda8    0000000c     rf_multiMode_cc13x0.aem3 : RFCC26XX_multiMode.oem3 (.text:RF_powerConstraintGet)
                  0000cdb4    0000000c     dpl_cc13x0.aem3 : SemaphoreP_tirtos.oem3 (.text:SemaphoreP_delete)
                  0000cdc0    0000000c     SensorOpt3001.obj (.text:SensorOpt3001_init)
                  0000cdcc    0000000c     NodeRadioTask.obj (.text:TRNGDisable)
                  0000cdd8    0000000c     NodeRadioTask.obj (.text:TRNGEnable)
                  0000cde4    0000000c     NodeRadioTask.obj (.text:TRNGStatusGet)
                  0000cdf0    0000000c     rtsv7M3_T_le_eabi.lib : _lock.c.obj (.text:_register_lock)
                  0000cdfc    0000000c                           : _lock.c.obj (.text:_register_unlock)
                  0000ce08    0000000c                           : copy_zero_init.c.obj (.text:decompress:ZI:__TI_zero_init)
                  0000ce14    0000000c     NodeRadioTask.obj (.text:nodeRadioTask_getNodeAddr)
                  0000ce20    0000000c     scif_framework.obj (.text:osalUnlockCtrlTaskNbl)
                  0000ce2c    0000000c     rom_sysbios.aem3 : rom_sysbios.obj (.text:pthread_self)
                  0000ce38    0000000c     scif_framework.obj (.text:scifGetAlertEvents)
                  0000ce44    0000000c     scif_framework.obj (.text:scifOsalLeaveCriticalSection)
                  0000ce50    0000000c     drivers_cc13x0.aem3 : SPICC26XXDMA.oem3 (.text:spiPostNotify)
                  0000ce5c    0000000c     rom_sysbios.aem3 : rom_sysbios.obj (.text:ti_sysbios_BIOS_getThreadType__E)
                  0000ce68    0000000c     rfPacketTx.obj (.text:ti_sysbios_knl_Clock_handle)
                  0000ce74    0000000c     release_pem3.oem3 (.text:ti_sysbios_knl_Event_Params__init__S)
                  0000ce80    0000000c     NodeRadioTask.obj (.text:ti_sysbios_knl_Event_handle)
                  0000ce8c    0000000c     rfPacketTx.obj (.text:ti_sysbios_knl_Event_handle)
                  0000ce98    0000000c     NodeRadioTask.obj (.text:ti_sysbios_knl_Semaphore_handle)
                  0000cea4    0000000c     SensorI2C.obj (.text:ti_sysbios_knl_Semaphore_handle)
                  0000ceb0    0000000c     scif_framework.obj (.text:ti_sysbios_knl_Semaphore_handle)
                  0000cebc    0000000c     rom_sysbios.aem3 : rom_sysbios.obj (.text:ti_sysbios_knl_Swi_getTrigger__E)
                  0000cec8    0000000c                      : rom_sysbios.obj (.text:xdc_runtime_Startup_rtsDone__E)
                  0000ced4    0000000a     dpl_cc13x0.aem3 : ClockP_tirtos.oem3 (.text:ClockP_Params_init)
                  0000cede    0000000a     drivers_cc13x0.aem3 : I2CCC26XX.oem3 (.text:I2CCC26XX_init)
                  0000cee8    0000000a                         : I2C.oem3 (.text:I2C_close)
                  0000cef2    0000000a                         : I2C.oem3 (.text:I2C_transfer)
                  0000cefc    0000000a                         : SPI.oem3 (.text:SPI_close)
                  0000cf06    0000000a                         : SPI.oem3 (.text:SPI_transfer)
                  0000cf10    0000000a     SceAdc.obj (.text:SceAdc_start)
                  0000cf1a    0000000a     SensorTmp007.obj (.text:SensorTmp007_init)
                  0000cf24    0000000a     drivers_cc13x0.aem3 : UART.oem3 (.text:UART_close)
                  0000cf2e    0000000a                         : UART.oem3 (.text:UART_control)
                  0000cf38    0000000a                         : UART.oem3 (.text:UART_write)
                  0000cf42    0000000a                         : UDMACC26XX.oem3 (.text:UDMACC26XX_hwiIntFxn)
                  0000cf4c    0000000a     scif_framework.obj (.text:osalClearCtrlReadyInt)
                  0000cf56    0000000a     scif_framework.obj (.text:osalClearTaskAlertInt)
                  0000cf60    0000000a     scif_framework.obj (.text:osalDisableCtrlReadyInt)
                  0000cf6a    0000000a     scif_framework.obj (.text:osalEnableCtrlReadyInt)
                  0000cf74    0000000a     scif_framework.obj (.text:scifOsalDisableTaskAlertInt)
                  0000cf7e    0000000a     scif_framework.obj (.text:scifOsalEnableTaskAlertInt)
                  0000cf88    0000000a     release_pem3.oem3 (.text:ti_sysbios_rts_ti_ReentSupport_getTlsAddr__I)
                  0000cf92    00000008     CC1350STK.obj (.text:Board_init)
                  0000cf9a    00000008     CC1350STK_fxns.obj (.text:Board_initHook)
                  0000cfa2    00000008     drivers_cc13x0.aem3 : I2CCC26XX.oem3 (.text:I2CCC26XX_blockingCallback)
                  0000cfaa    00000008                         : SPICC26XXDMA.oem3 (.text:SPICC26XXDMA_transferCallback)
                  0000cfb2    00000008                         : UARTCC26XX.oem3 (.text:UARTCC26XX_init)
                  0000cfba    00000008                         : UARTCC26XX.oem3 (.text:readSemCallback)
                  0000cfc2    00000008     smartrf_settings.obj (.text:rf_patch_cpe_genfsk)
                  0000cfca    00000008     smartrf_settings_predefined.obj (.text:rf_patch_cpe_genfsk)
                  0000cfd2    00000008     smartrf_settings_predefined.obj (.text:rf_patch_cpe_lrm)
                  0000cfda    00000008     smartrf_settings_predefined.obj (.text:rf_patch_cpe_sl_longrange)
                  0000cfe2    00000008     scif_framework.obj (.text:scifOsalEnterCriticalSection)
                  0000cfea    00000008     drivers_cc13x0.aem3 : UARTCC26XX.oem3 (.text:writeSemCallback)
                  0000cff2    00000006     display.aem3 : DisplayUart.oem3 (.text:DisplayUartMin_control)
                  0000cff8    00000006                  : DisplayUart.oem3 (.text:DisplayUartMin_getType)
                  0000cffe    00000006                  : Display.oem3 (.text:Display_doParamsInit)
                  0000d004    00000006     drivers_cc13x0.aem3 : I2CCC26XX.oem3 (.text:I2CCC26XX_control)
                  0000d00a    00000006     driverlib.lib : cpu.obj (.text:NOROM_CPUdelay)
                  0000d010    00000006     rf_multiMode_cc13x0.aem3 : RFCC26XX_multiMode.oem3 (.text:RF_clkReqAccess)
                  0000d016    00000006     drivers_cc13x0.aem3 : UARTCC26XX.oem3 (.text:UARTCC26XX_readPolling)
                  0000d01c    00000006                         : UARTCC26XX.oem3 (.text:UARTCC26XX_writePolling)
                  0000d022    00000006     rom_sysbios.aem3 : rom_sysbios.obj (.text:pthread_attr_setstacksize)
                  0000d028    00000006                      : rom_sysbios.obj (.text:ti_sysbios_family_arm_m3_Hwi_setFunc__E)
                  0000d02e    00000004     dpl_cc13x0.aem3 : ClockP_tirtos.oem3 (.text:ClockP_destruct)
                  0000d032    00000004                     : ClockP_tirtos.oem3 (.text:ClockP_getCpuFreq)
                  0000d036    00000004                     : ClockP_tirtos.oem3 (.text:ClockP_getTimeout)
                  0000d03a    00000004                     : ClockP_tirtos.oem3 (.text:ClockP_setTimeout)
                  0000d03e    00000004                     : ClockP_tirtos.oem3 (.text:ClockP_start)
                  0000d042    00000004                     : ClockP_tirtos.oem3 (.text:ClockP_stop)
                  0000d046    00000004                     : HwiP_tirtos.oem3 (.text:HwiP_destruct)
                  0000d04a    00000004                     : HwiP_tirtos.oem3 (.text:HwiP_disable)
                  0000d04e    00000004                     : HwiP_tirtos.oem3 (.text:HwiP_disableInterrupt)
                  0000d052    00000004                     : HwiP_tirtos.oem3 (.text:HwiP_enableInterrupt)
                  0000d056    00000004                     : HwiP_tirtos.oem3 (.text:HwiP_post)
                  0000d05a    00000004                     : HwiP_tirtos.oem3 (.text:HwiP_setFunc)
                  0000d05e    00000004                     : HwiP_tirtos.oem3 (.text:HwiP_setPriority)
                  0000d062    00000004     driverlib.lib : rfc.obj (.text:NOROM_RFCOverrideUpdate)
                  0000d066    00000004     drivers_cc13x0.aem3 : PowerCC26XX.oem3 (.text:PowerCC26XX_switchXOSC_HF)
                  0000d06a    00000004     dpl_cc13x0.aem3 : SemaphoreP_tirtos.oem3 (.text:SemaphoreP_destruct)
                  0000d06e    00000004                     : SemaphoreP_tirtos.oem3 (.text:SemaphoreP_post)
                  0000d072    00000004                     : SwiP_tirtos.oem3 (.text:SwiP_destruct)
                  0000d076    00000004                     : SwiP_tirtos.oem3 (.text:SwiP_disable)
                  0000d07a    00000004                     : SwiP_tirtos.oem3 (.text:SwiP_getTrigger)
                  0000d07e    00000004                     : SwiP_tirtos.oem3 (.text:SwiP_or)
                  0000d082    00000004                     : SwiP_tirtos.oem3 (.text:SwiP_post)
                  0000d086    00000004                     : SwiP_tirtos.oem3 (.text:SwiP_setPriority)
                  0000d08a    00000004                     : SystemP_tirtos.oem3 (.text:SystemP_vsnprintf)
                  0000d08e    00000004     rom_sysbios.aem3 : rom_sysbios.obj (.text:__aeabi_errno_addr)
                  0000d092    00000004     drivers_cc13x0.aem3 : PowerCC26XX.oem3 (.text:nopResourceHandler)
                  0000d096    00000004     rom_sysbios.aem3 : rom_sysbios.obj (.text:ti_sysbios_family_arm_cc26xx_Timer_getCount64__E)
                  0000d09a    00000004                      : rom_sysbios.obj (.text:ti_sysbios_knl_Clock_isActive__E)
                  0000d09e    00000004                      : rom_sysbios.obj (.text:ti_sysbios_knl_Queue_insert__E)
                  0000d0a2    00000004                      : rom_sysbios.obj (.text:ti_sysbios_knl_Task_getArg1__E)
                  0000d0a6    00000004                      : rom_sysbios.obj (.text:ti_sysbios_knl_Task_getEnv__E)
                  0000d0aa    00000004     release_pem3.oem3 (.text:xdc_runtime_Startup_reset__I)
                  0000d0ae    00000004     rom_sysbios.aem3 : rom_sysbios.obj (.text:xdc_runtime_SysCallback_defaultReady)
                  0000d0b2    00000002     --HOLE-- [fill = 0]
                  0000d0b4    00000008     (.tramp.ti_sysbios_knl_Swi_destruct.1)
                  0000d0bc    00000008     (.tramp.ti_sysbios_family_arm_m3_Hwi_setPriority__E.1)
                  0000d0c4    00000008     (.tramp.ti_sysbios_family_arm_m3_Hwi_destruct.1)
                  0000d0cc    00000008     (.tramp.ti_sysbios_BIOS_getCpuFreq__E.1)
                  0000d0d4    00000008     (.tramp.ti_sysbios_knl_Clock_destruct.1)
                  0000d0dc    00000008     (.tramp.ti_sysbios_family_arm_m3_Hwi_enableInterrupt__E.1)
                  0000d0e4    00000008     (.tramp.ti_sysbios_family_arm_m3_Hwi_disableInterrupt__E.1)
                  0000d0ec    00000008     (.tramp.xdc_runtime_Core_assignParams__I.1)
                  0000d0f4    00000008     (.tramp.ti_sysbios_knl_Semaphore_delete.1)
                  0000d0fc    00000008     (.tramp.xdc_runtime_Startup_startMods__I.1)
                  0000d104    00000008     (.tramp.ti_sysbios_knl_Clock_logTick__E.1)
                  0000d10c    00000008     (.tramp.ti_sysbios_knl_Swi_post__E.1)
                  0000d114    00000008     (.tramp.ti_sysbios_BIOS_RtsGateProxy_leave__E.1)
                  0000d11c    00000008     (.tramp.ti_sysbios_knl_Swi_construct.1)
                  0000d124    00000008     (.tramp.ti_sysbios_BIOS_RtsGateProxy_enter__E.1)
                  0000d12c    00000008     (.tramp.xdc_runtime_Core_constructObject__I.1)
                  0000d134    00000008     (.tramp.ti_sysbios_family_arm_m3_Hwi_disableFxn__E.1)
                  0000d13c    00000008     (.tramp.ti_sysbios_knl_Task_delete.1)
                  0000d144    00000008     (.tramp.ti_sysbios_knl_Semaphore_destruct.1)
                  0000d14c    00000008     (.tramp.ti_sysbios_knl_Task_startup__E.1)
                  0000d154    00000008     (.tramp.ti_sysbios_knl_Swi_startup__E.1)
                  0000d15c    00000008     (.tramp.ti_sysbios_hal_Hwi_startup__E.1)
                  0000d164    00000008     (.tramp.ti_sysbios_family_arm_cc26xx_Timer_startup__E.1)
                  0000d16c    00000008     (.tramp.xdc_runtime_System_atexit__E.1)
                  0000d174    00000008     (.tramp.ti_sysbios_BIOS_setThreadType__E.1)
                  0000d17c    00000008     (.tramp.ti_sysbios_knl_Swi_disable__E.1)
                  0000d184    00000008     (.tramp.ti_sysbios_knl_Queue_Object__get__S.1)
                  0000d18c    00000008     (.tramp.ti_sysbios_family_arm_m3_Hwi_construct.1)
                  0000d194    00000008     (.tramp.ti_sysbios_knl_Swi_Params__init__S.1)
                  0000d19c    00000008     (.tramp.ti_sysbios_family_arm_m3_Hwi_Params__init__S.1)
                  0000d1a4    00000008     (.tramp.xdc_runtime_System_exit__E.1)
                  0000d1ac    00000008     (.tramp.ti_sysbios_knl_Clock_Params__init__S.1)
                  0000d1b4    00000008     (.tramp.xdc_runtime_Error_raiseX__E.1)
                  0000d1bc    00000008     (.tramp.ti_sysbios_heaps_HeapMem_Module_GateProxy_leave__E.1)
                  0000d1c4    00000008     (.tramp.ti_sysbios_heaps_HeapMem_Module_GateProxy_enter__E.1)
                  0000d1cc    00000008     (.tramp.ti_sysbios_heaps_HeapMem_restore__E.1)
                  0000d1d4    00000008     (.tramp.ti_sysbios_heaps_HeapMem_Object__get__S.1)
                  0000d1dc    00000008     (.tramp.ti_sysbios_knl_Task_unblockI__E.1)
                  0000d1e4    00000008     (.tramp.ti_sysbios_BIOS_start__E.1)
                  0000d1ec    00000008     (.tramp.xdc_runtime_Memory_free__E.1)
                  0000d1f4    00000008     (.tramp.ti_sysbios_knl_Queue_next__E.1)
                  0000d1fc    00000008     (.tramp.ti_sysbios_knl_Queue_head__E.1)
                  0000d204    00000008     (.tramp.ti_sysbios_knl_Clock_scheduleNextTick__E.1)
                  0000d20c    00000008     (.tramp.ti_sysbios_knl_Clock_walkQueueDynamic__E.1)
                  0000d214    00000008     (.tramp.ti_sysbios_knl_Clock_TimerProxy_getCurrentTick__E.1)
                  0000d21c    00000008     (.tramp.ti_sysbios_knl_Queue_empty__E.1)
                  0000d224    00000008     (.tramp.ti_sysbios_knl_Queue_remove__E.1)
                  0000d22c    00000008     (.tramp.ti_sysbios_knl_Clock_construct.1)
                  0000d234    00000008     (.tramp.ti_sysbios_knl_Task_construct.1)
                  0000d23c    00000008     (.tramp.ti_sysbios_knl_Clock_removeI__E.1)
                  0000d244    00000008     (.tramp.ti_sysbios_knl_Task_restore__E.1)
                  0000d24c    00000008     (.tramp.ti_sysbios_knl_Clock_startI__E.1)
                  0000d254    00000008     (.tramp.ti_sysbios_knl_Task_blockI__E.1)
                  0000d25c    00000008     (.tramp.ti_sysbios_knl_Queue_enqueue__E.1)
                  0000d264    00000008     (.tramp.ti_sysbios_knl_Task_disable__E.1)
                  0000d26c    00000008     (.tramp.ti_sysbios_knl_Task_self__E.1)
                  0000d274    00000008     (.tramp.ti_sysbios_knl_Clock_addI__E.1)
                  0000d27c    00000008     (.tramp.ti_sysbios_knl_Task_create.1)
                  0000d284    00000008     (.tramp.ti_sysbios_knl_Semaphore_construct.1)
                  0000d28c    00000008     (.tramp.ti_sysbios_knl_Semaphore_Params__init__S.1)
                  0000d294    00000008     (.tramp.ti_sysbios_knl_Queue_construct.1)
                  0000d29c    00000008     (.tramp.xdc_runtime_Memory_alloc__E.1)
                  0000d2a4    00000008     (.tramp.ti_sysbios_knl_Task_Params__init__S.1)
                  0000d2ac    00000008     (.tramp.ti_sysbios_knl_Swi_restore__E.1)
                  0000d2b4    00000008     (.tramp.ti_sysbios_knl_Clock_getTicks__E.1)

.const     0    0000d2c0    00004567     
                  0000d2c0    00001000     rtsv7M3_T_le_eabi.lib : s_exp2.c.obj (.const:tbl)
                  0000e2c0    000006b4     smartrf_settings.obj (.const:patchGenfskRfe)
                  0000e974    000006b4     smartrf_settings_predefined.obj (.const:patchGenfskRfe)
                  0000f028    000006b4     smartrf_settings_predefined.obj (.const:patchLrmRfe)
                  0000f6dc    000006b4     smartrf_settings_predefined.obj (.const:patchSl_longrangeRfe)
                  0000fd90    00000408     smartrf_settings.obj (.const:patchImageGenfsk)
                  00010198    00000408     smartrf_settings_predefined.obj (.const:patchImageGenfsk)
                  000105a0    00000408     smartrf_settings_predefined.obj (.const:patchImageLrm)
                  000109a8    00000408     smartrf_settings_predefined.obj (.const:patchImageSlLongrange)
                  00010db0    00000400     smartrf_settings_predefined.obj (.const:patchSl_longrangeMce)
                  000111b0    000001ac     scif.obj (.const:pAuxRamImage)
                  0001135c    00000064     CC1350STK.obj (.const:BoardGpioInitTable)
                  000113c0    0000004c     drivers_cc13x0.aem3 : PowerCC26XX.oem3 (.const:resourceDB)
                  0001140c    00000048     release_pem3.oem3 (.const:.string)
                  00011454    00000044     drivers_cc13x0.aem3 : UARTCC26XX.oem3 (.const:$O1$$)
                  00011498    00000040     CC1350STK.obj (.const:spiCC26XXDMAHWAttrs)
                  000114d8    00000038     drivers_cc13x0.aem3 : SPICC26XXDMA.oem3 (.const:$O1$$)
                  00011510    00000030     scif.obj (.const:scifDriverSetup)
                  00011540    00000028     drivers_cc13x0.aem3 : UARTCC26XX.oem3 (.const:UARTCC26XX_fxnTable)
                  00011568    00000028     CC1350STK.obj (.const:uartCC26XXHWAttrs)
                  00011590    00000024     drivers_cc13x0.aem3 : UART.oem3 (.const:UART_defaultParams)
                  000115b4    00000024     release_pem3.oem3 (.const:xdc_runtime_Startup_sfxnTab__A)
                  000115d8    00000020     display.aem3 : DisplayUart.oem3 (.const:DisplayUartMin_fxnTable)
                  000115f8    00000020     drivers_cc13x0.aem3 : SPI.oem3 (.const:SPI_defaultParams)
                  00011618    00000020     release_pem3.oem3 (.const:ti_sysbios_knl_Event_Object__DESC__C)
                  00011638    0000001c     rf_multiMode_cc13x0.aem3 : RFCC26XX_multiMode.oem3 (.const:RF_defaultParams)
                  00011654    00000018     drivers_cc13x0.aem3 : I2CCC26XX.oem3 (.const:I2CCC26XX_fxnTable)
                  0001166c    00000018     CC1350STK.obj (.const:PowerCC26XX_config)
                  00011684    00000018     drivers_cc13x0.aem3 : SPICC26XXDMA.oem3 (.const:SPICC26XXDMA_fxnTable)
                  0001169c    00000018     CC1350STK.obj (.const:SPI_config)
                  000116b4    00000018     CC1350STK.obj (.const:i2cCC26xxHWAttrs)
                  000116cc    00000018     driverlib.lib : rfc.obj (.const:rfc_defaultIrqAddr)
                  000116e4    00000018     release_pem3.oem3 (.const:ti_sysbios_knl_Event_Object__PARAMS__C)
                  000116fc    00000014     CC1350STK_fxns.obj (.const:$P$T1$2)
                  00011710    00000014     CC1350STK.obj (.const:displayUartHWAttrs)
                  00011724    00000012     release_pem3.oem3 (.const:xdc_runtime_Startup_sfxnRts__A)
                  00011736    00000010     scif.obj (.const:.string:pAuxIoIndexToMcuIocfgOffsetLut)
                  00011746    00000002     SensorI2C.obj (.const:pinCfg1)
                  00011748    00000010     EasyLink.obj (.const:EasyLink_defaultParams)
                  00011758    00000010     drivers_cc13x0.aem3 : I2C.oem3 (.const:I2C_defaultParams)
                  00011768    00000010     scif.obj (.const:pScifTaskDataStructInfoLut)
                  00011778    0000000f     CC1350STK.obj (.const)
                  00011787    00000001     ExtFlash.obj (.const:.string:$P$T1$2)
                  00011788    0000000c     CC1350STK.obj (.const:Display_config)
                  00011794    0000000c     CC1350STK.obj (.const:I2C_config)
                  000117a0    0000000c     CC1350STK.obj (.const:RFCC26XX_hwAttrs)
                  000117ac    0000000c     CC1350STK.obj (.const:UART_config)
                  000117b8    0000000c     release_pem3.oem3 (.const:xdc_runtime_Startup_firstFxns__A)
                  000117c4    00000008     CC1350STK_fxns.obj (.const:$P$T0$1)
                  000117cc    00000008     CC1350STK.obj (.const:PINCC26XX_hwAttrs)
                  000117d4    00000008     CC1350STK.obj (.const:UDMACC26XX_config)
                  000117dc    00000008     drivers_cc13x0.aem3 : I2CCC26XX.oem3 (.const:bitRate)
                  000117e4    00000008     release_pem3.oem3 (.const:ti_sysbios_knl_Idle_funcList__A)
                  000117ec    00000008     CC1350STK.obj (.const:udmaHWAttrs)
                  000117f4    00000004     ExtFlash.obj (.const:.string:$P$T0$1)
                  000117f8    00000004     release_pem3.oem3 (.const:ti_sysbios_family_arm_cc26xx_Timer_funcHookCH1__C)
                  000117fc    00000004     release_pem3.oem3 (.const:ti_sysbios_family_arm_cc26xx_Timer_funcHookCH2__C)
                  00011800    00000004     release_pem3.oem3 (.const:ti_sysbios_heaps_HeapMem_primaryHeapBaseAddr__C)
                  00011804    00000004     release_pem3.oem3 (.const:ti_sysbios_heaps_HeapMem_primaryHeapEndAddr__C)
                  00011808    00000004     release_pem3.oem3 (.const:ti_sysbios_knl_Clock_tickPeriod__C)
                  0001180c    00000004     release_pem3.oem3 (.const:ti_sysbios_knl_Clock_triggerClock__C)
                  00011810    00000004     release_pem3.oem3 (.const:ti_sysbios_knl_Event_Instance_State_pendQ__O)
                  00011814    00000004     release_pem3.oem3 (.const:ti_sysbios_knl_Task_Object__heap__C)
                  00011818    00000004     release_pem3.oem3 (.const:xdc_runtime_SysCallback_putchFxn__C)
                  0001181c    00000004     release_pem3.oem3 (.const:xdc_runtime_SysCallback_readyFxn__C)
                  00011820    00000004     release_pem3.oem3 (.const:xdc_runtime_System_extendFxn__C)
                  00011824    00000001     display.aem3 : Display.oem3 (.const:Display_defaultParams)
                  00011825    00000001     easylink_config.obj (.const)
                  00011826    00000001     release_pem3.oem3 (.const:xdc_runtime_Text_charTab__A)

MODULE SUMMARY

       Module                            code    ro data   rw data
       ------                            ----    -------   -------
    .\
       rfPacketTx.obj                    2418    0         1564   
       NodeRadioTask.obj                 1710    0         1582   
       CC1350STK.obj                     36      383       1184   
       CC1350STK_fxns.obj                280     28        0      
       SceAdc.obj                        204     0         4      
       main_tirtos.obj                   124     0         0      
       ccfg.obj                          0       88        0      
    +--+---------------------------------+-------+---------+---------+
       Total:                            4772    499       4334   
                                                                  
    .\easylink\
       EasyLink.obj                      4498    16        1027   
       easylink_config.obj               0       1         144    
    +--+---------------------------------+-------+---------+---------+
       Total:                            4498    17        1171   
                                                                  
    .\extflash\
       ExtFlash.obj                      878     5         108    
    +--+---------------------------------+-------+---------+---------+
       Total:                            878     5         108    
                                                                  
    .\sce\
       scif_framework.obj                1486    0         144    
       scif.obj                          164     508       0      
    +--+---------------------------------+-------+---------+---------+
       Total:                            1650    508       144    
                                                                  
    .\sensors\
       SensorMpu9250.obj                 1304    0         53     
       SensorI2C.obj                     690     2         82     
       SensorBmp280.obj                  616     0         24     
       SensorHdc1000.obj                 344     0         5      
       SensorOpt3001.obj                 278     0         0      
       SensorTmp007.obj                  106     0         2      
       SensorUtil.obj                    88      0         0      
    +--+---------------------------------+-------+---------+---------+
       Total:                            3426    2         166    
                                                                  
    .\smartrf_settings\
       smartrf_settings_predefined.obj   1702    9268      616    
       smartrf_settings.obj              502     2748      192    
    +--+---------------------------------+-------+---------+---------+
       Total:                            2204    12016     808    
                                                                  
    C:\Users\Tomasz\Desktop\Tomek\Erasmus\Smartwatch\tirtos_builds_CC1350STK_release_ccs\Debug\configPkg\package\cfg\
       release_pem3.oem3                 828     1559      1778   
    +--+---------------------------------+-------+---------+---------+
       Total:                            828     1559      1778   
                                                                  
    C:/ti/simplelink_cc13x0_sdk_4_20_02_07/kernel/tirtos/packages/ti/dpl/lib/dpl_cc13x0.aem3
       PowerCC26XX_tirtos.oem3           280     0         8      
       ClockP_tirtos.oem3                130     0         4      
       SemaphoreP_tirtos.oem3            126     0         0      
       HwiP_tirtos.oem3                  106     0         0      
       SwiP_tirtos.oem3                  100     0         0      
       SystemP_tirtos.oem3               4       0         0      
    +--+---------------------------------+-------+---------+---------+
       Total:                            746     0         12     
                                                                  
    C:/ti/simplelink_cc13x0_sdk_4_20_02_07/source/ti/devices/cc13x0/driverlib/bin/ccs/driverlib.lib
       setup_rom.obj                     1468    0         0      
       sys_ctrl.obj                      776     0         8      
       rfc.obj                           692     24        0      
       osc.obj                           388     0         20     
       setup.obj                         368     0         0      
       chipinfo.obj                      186     0         0      
       aon_rtc.obj                       44      0         0      
       ddi.obj                           44      0         0      
       adi.obj                           40      0         0      
       aon_batmon.obj                    40      0         0      
       cpu.obj                           30      0         0      
       vims.obj                          14      0         0      
       driverlib_release.obj             0       0         1      
    +--+---------------------------------+-------+---------+---------+
       Total:                            4090    24        29     
                                                                  
    C:/ti/simplelink_cc13x0_sdk_4_20_02_07/source/ti/display/lib/display.aem3
       DisplayUart.oem3                  184     32        0      
       Display.oem3                      180     1         0      
    +--+---------------------------------+-------+---------+---------+
       Total:                            364     33        0      
                                                                  
    C:/ti/simplelink_cc13x0_sdk_4_20_02_07/source/ti/drivers/lib/drivers_cc13x0.aem3
       UARTCC26XX.oem3                   2630    108       0      
       SPICC26XXDMA.oem3                 2448    80        64     
       PowerCC26XX.oem3                  2108    76        276    
       PINCC26XX.oem3                    1658    0         276    
       I2CCC26XX.oem3                    1430    32        0      
       PowerCC26XX_calibrateRCOSC.oem3   1380    0         0      
       UART.oem3                         182     36        1      
       SPI.oem3                          168     32        1      
       List.oem3                         192     0         0      
       I2C.oem3                          164     16        1      
       UDMACC26XX.oem3                   156     0         0      
       RingBuf.oem3                      148     0         0      
    +--+---------------------------------+-------+---------+---------+
       Total:                            12664   380       619    
                                                                  
    C:/ti/simplelink_cc13x0_sdk_4_20_02_07/source/ti/drivers/rf/lib/rf_multiMode_cc13x0.aem3
       RFCC26XX_multiMode.oem3           7866    28        1005   
    +--+---------------------------------+-------+---------+---------+
       Total:                            7866    28        1005   
                                                                  
    C:\Users\Tomasz\Desktop\Tomek\Erasmus\Smartwatch\tirtos_builds_CC1350STK_release_ccs\src\sysbios\rom_sysbios.aem3
       rom_sysbios.obj                   3743    0         136    
    +--+---------------------------------+-------+---------+---------+
       Total:                            3743    0         136    
                                                                  
    C:\ti\simplelink_cc13x0_sdk_4_20_02_07\kernel\tirtos\packages\ti\targets\arm\rtsarm\lib\auto_init.aem3
       auto_init.oem3                    160     0         0      
    +--+---------------------------------+-------+---------+---------+
       Total:                            160     0         0      
                                                                  
    C:\ti\simplelink_cc13x0_sdk_4_20_02_07\kernel\tirtos\packages\ti\targets\arm\rtsarm\lib\boot.aem3
       boot.oem3                         68      0         0      
    +--+---------------------------------+-------+---------+---------+
       Total:                            68      0         0      
                                                                  
    C:\ti\ti-cgt-arm_18.12.5.LTS\lib\rtsv7M3_T_le_eabi.lib
       s_exp2.c.obj                      508     4096      0      
       fd_add_t2.asm.obj                 438     0         0      
       e_sqrt.c.obj                      368     0         0      
       fd_div_t2.asm.obj                 310     0         0      
       fd_cmp_t2.asm.obj                 268     0         0      
       fd_mul_t2.asm.obj                 252     0         0      
       fs_add_t2.asm.obj                 250     0         0      
       memcpy_t2.asm.obj                 156     0         0      
       ull_div_t2.asm.obj                150     0         0      
       fs_div_t2.asm.obj                 146     0         0      
       fs_mul_t2.asm.obj                 122     0         0      
       memset_t2.asm.obj                 122     0         0      
       fd_tos_t2.asm.obj                 110     0         0      
       copy_decompress_lzss.c.obj        104     0         0      
       fs_cmp_t2.asm.obj                 96      0         0      
       cpy_tbl.c.obj                     76      0         0      
       fd_toi_t2.asm.obj                 72      0         0      
       fd_tou_t2.asm.obj                 68      0         0      
       u_divt2.asm.obj                   64      0         0      
       fs_tod_t2.asm.obj                 56      0         0      
       fs_toi_t2.asm.obj                 56      0         0      
       rand.c.obj                        52      0         4      
       i_tofd_t2.asm.obj                 46      0         0      
       u_tofs_t2.asm.obj                 36      0         0      
       _lock.c.obj                       26      0         8      
       u_tofd_t2.asm.obj                 32      0         0      
       args_main.c.obj                   24      0         0      
       ll_mul_t2.asm.obj                 24      0         0      
       strlen.c.obj                      20      0         0      
       copy_decompress_none.c.obj        14      0         0      
       copy_zero_init.c.obj              12      0         0      
       stkdepth_vars.c.obj               0       0         4      
       div0.asm.obj                      2       0         0      
    +--+---------------------------------+-------+---------+---------+
       Total:                            4080    4096      16     
                                                                  
       Stack:                            0       0         1024   
       Linker Generated:                 584     1199      0      
    +--+---------------------------------+-------+---------+---------+
       Grand Total:                      52621   20366     11350  


LINKER GENERATED COPY TABLES

__TI_cinit_table @ 00011c60 records: 16, size/record: 8, table size: 128
	.data: load addr=00011828, load size=0000033a bytes, run addr=20003168, run size=00000a06 bytes, compression=lzss
	.data:ti_sysbios_family_arm_m3_Hwi_Module__state__V: load addr=00011b62, load size=00000029 bytes, run addr=20000144, run size=00000034 bytes, compression=lzss
	.data:ti_sysbios_knl_Task_Module__state__V: load addr=00011b8b, load size=00000021 bytes, run addr=20000100, run size=00000044 bytes, compression=lzss
	.data:ti_sysbios_BIOS_Module__state__V: load addr=00011bac, load size=0000001f bytes, run addr=200001a4, run size=00000024 bytes, compression=lzss
	.data:ti_sysbios_knl_Clock_Module__state__V: load addr=00011bcb, load size=0000001e bytes, run addr=20000178, run size=0000002c bytes, compression=lzss
	.data:ti_sysbios_knl_Swi_Module__state__V: load addr=00011be9, load size=0000000e bytes, run addr=200001c8, run size=0000001c bytes, compression=lzss
	.data:ti_sysbios_family_arm_cc26xx_Timer_Module__state__V: load addr=00011c04, load size=0000000b bytes, run addr=200001e4, run size=00000008 bytes, compression=lzss
	.data:xdc_runtime_System_Module__state__V: load addr=00011c0f, load size=0000000b bytes, run addr=200001f8, run size=00000008 bytes, compression=lzss
	.TI.bound:dmaSpi0RxControlTableEntry: load addr=00011c20, load size=00000008 bytes, run addr=20000430, run size=00000010 bytes, compression=zero_init
	.TI.bound:dmaSpi0TxControlTableEntry: load addr=00011c28, load size=00000008 bytes, run addr=20000440, run size=00000010 bytes, compression=zero_init
	.TI.bound:dmaSpi1RxControlTableEntry: load addr=00011c30, load size=00000008 bytes, run addr=20000500, run size=00000010 bytes, compression=zero_init
	.TI.bound:dmaSpi1TxControlTableEntry: load addr=00011c38, load size=00000008 bytes, run addr=20000510, run size=00000010 bytes, compression=zero_init
	.bss: load addr=00011c40, load size=00000008 bytes, run addr=20000520, run size=00001c44 bytes, compression=zero_init
	.data:xdc_runtime_Memory_Module__state__V: load addr=00011c48, load size=00000008 bytes, run addr=20000200, run size=00000004 bytes, compression=lzss
	.data:ti_sysbios_family_arm_cc26xx_TimestampProvider_Module__state__V: load addr=00011c50, load size=00000007 bytes, run addr=200001ec, run size=00000004 bytes, compression=lzss
	.data:xdc_runtime_Startup_Module__state__V: load addr=00011c57, load size=00000007 bytes, run addr=200001f0, run size=00000008 bytes, compression=lzss


LINKER GENERATED HANDLER TABLE

__TI_handler_table @ 00011bf8 records: 3, size/record: 4, table size: 12
	index: 0, handler: __TI_decompress_lzss
	index: 1, handler: __TI_decompress_none
	index: 2, handler: __TI_zero_init


FAR CALL TRAMPOLINES

callee name               trampoline name
   callee addr  tramp addr   call addr  call info
--------------  -----------  ---------  ----------------
ti_sysbios_knl_Semaphore_pend__E  $Tramp$TT$L$PI$$ti_sysbios_knl_Semaphore_pend__E
   1001a001     000006cc     00000066   EasyLink.obj (.text:EasyLink_init)
                             000026f0   EasyLink.obj (.text:enableTestMode)
                             00002b24   EasyLink.obj (.text:EasyLink_transmit)
                             00003104   EasyLink.obj (.text:EasyLink_receiveAsync)
                             00005bc2   EasyLink.obj (.text:EasyLink_enableRxAddrFilter)
                             000075ee   SensorI2C.obj (.text:SensorI2C_select)
                             000082cc   rom_sysbios.aem3 : rom_sysbios.obj (.text:_pthread_removeThreadKeys)
                             0000954e   NodeRadioTask.obj (.text:NodeRadioTask_sendAdcData)
                             0000956c   NodeRadioTask.obj (.text:NodeRadioTask_sendAdcData)
                             0000cb28   dpl_cc13x0.aem3 : SemaphoreP_tirtos.oem3 (.text:SemaphoreP_pend)
ti_sysbios_knl_Semaphore_post__E  $Tramp$TT$L$PI$$ti_sysbios_knl_Semaphore_post__E
   1001ac41     000006d4     00000268   EasyLink.obj (.text:EasyLink_init)
                             000002e6   EasyLink.obj (.text:EasyLink_init)
                             0000061c   EasyLink.obj (.text:EasyLink_init)
                             00000626   EasyLink.obj (.text:EasyLink_init)
                             00002cb2   EasyLink.obj (.text:EasyLink_transmit)
                             00003238   EasyLink.obj (.text:EasyLink_receiveAsync)
                             0000363e   EasyLink.obj (.text:rxDoneCallback)
                             00003746   EasyLink.obj (.text:rxDoneCallback)
                             00005c50   EasyLink.obj (.text:EasyLink_enableRxAddrFilter)
                             00006f7e   NodeRadioTask.obj (.text:rxDoneCallback)
                             00008316   rom_sysbios.aem3 : rom_sysbios.obj (.text:_pthread_removeThreadKeys)
                             00009582   NodeRadioTask.obj (.text:NodeRadioTask_sendAdcData)
                             0000a014   rom_sysbios.aem3 : rom_sysbios.obj (.text:pthread_exit)
                             0000bbe8   EasyLink.obj (.text:asyncCmdCallback)
                             0000bc0e   scif_framework.obj (.text:osalIndicateCtrlReady)
                             0000c21a   NodeRadioTask.obj (.text:returnRadioOperationStatus)
                             0000ca40   SensorI2C.obj (.text:SensorI2C_deselect)
                             0000d06e   dpl_cc13x0.aem3 : SemaphoreP_tirtos.oem3 (.text:SemaphoreP_post)
ti_sysbios_knl_Semaphore_create  $Tramp$TT$L$PI$$ti_sysbios_knl_Semaphore_create
   1001b5a9     000006dc     00000606   EasyLink.obj (.text:EasyLink_init)
                             0000bb9c   dpl_cc13x0.aem3 : SemaphoreP_tirtos.oem3 (.text:SemaphoreP_createBinary)
ti_sysbios_family_arm_m3_Hwi_restoreFxn__E  $Tramp$TT$L$PI$$ti_sysbios_family_arm_m3_Hwi_restoreFxn__E
   1001c215     00000b70     000007aa   rf_multiMode_cc13x0.aem3 : RFCC26XX_multiMode.oem3 (.text:RF_fsmActiveState)
                             000008aa                            : RFCC26XX_multiMode.oem3 (.text:RF_fsmActiveState)
                             0000092c                            : RFCC26XX_multiMode.oem3 (.text:RF_fsmActiveState)
                             00000a26                            : RFCC26XX_multiMode.oem3 (.text:RF_fsmActiveState)
                             00000a92                            : RFCC26XX_multiMode.oem3 (.text:RF_fsmActiveState)
                             00000b18                            : RFCC26XX_multiMode.oem3 (.text:RF_fsmActiveState)
                             00000b38                            : RFCC26XX_multiMode.oem3 (.text:RF_fsmActiveState)
                             00000f08   drivers_cc13x0.aem3 : UARTCC26XX.oem3 (.text:UARTCC26XX_read)
                             00000f60                       : UARTCC26XX.oem3 (.text:UARTCC26XX_read)
                             00000f88                       : UARTCC26XX.oem3 (.text:UARTCC26XX_read)
                             00000f9a                       : UARTCC26XX.oem3 (.text:UARTCC26XX_read)
                             00000fe4                       : UARTCC26XX.oem3 (.text:UARTCC26XX_read)
                             00000ff4                       : UARTCC26XX.oem3 (.text:UARTCC26XX_read)
                             00001d8c   rf_multiMode_cc13x0.aem3 : RFCC26XX_multiMode.oem3 (.text:RF_scheduleCmd)
                             0000227a   drivers_cc13x0.aem3 : SPICC26XXDMA.oem3 (.text:SPICC26XXDMA_transfer)
                             000022a2                       : SPICC26XXDMA.oem3 (.text:SPICC26XXDMA_transfer)
                             000022ea                       : SPICC26XXDMA.oem3 (.text:SPICC26XXDMA_transfer)
                             0000231c                       : SPICC26XXDMA.oem3 (.text:SPICC26XXDMA_transfer)
                             000023fc                       : SPICC26XXDMA.oem3 (.text:SPICC26XXDMA_transfer)
                             00002f3a   rf_multiMode_cc13x0.aem3 : RFCC26XX_multiMode.oem3 (.text:RF_open)
                             0000301a                            : RFCC26XX_multiMode.oem3 (.text:RF_open)
                             00004116   drivers_cc13x0.aem3 : UARTCC26XX.oem3 (.text:UARTCC26XX_open)
                             00004122                       : UARTCC26XX.oem3 (.text:UARTCC26XX_open)
                             000041aa                       : UARTCC26XX.oem3 (.text:UARTCC26XX_open)
                             0000452c                       : I2CCC26XX.oem3 (.text:I2CCC26XX_open)
                             0000453c                       : I2CCC26XX.oem3 (.text:I2CCC26XX_open)
                             0000459e                       : I2CCC26XX.oem3 (.text:I2CCC26XX_open)
                             000049f4   rf_multiMode_cc13x0.aem3 : RFCC26XX_multiMode.oem3 (.text:RF_abortCmd)
                             0000523a   drivers_cc13x0.aem3 : SPICC26XXDMA.oem3 (.text:SPICC26XXDMA_open)
                             0000524a                       : SPICC26XXDMA.oem3 (.text:SPICC26XXDMA_open)
                             000053d6   rf_multiMode_cc13x0.aem3 : RFCC26XX_multiMode.oem3 (.text:RF_radioOpDoneCb)
                             000055fa   drivers_cc13x0.aem3 : PINCC26XX.oem3 (.text:PINCC26XX_setIoCfg)
                             00005644                       : PINCC26XX.oem3 (.text:PINCC26XX_setIoCfg)
                             00005700   rf_multiMode_cc13x0.aem3 : RFCC26XX_multiMode.oem3 (.text:RF_close)
                             0000576a                            : RFCC26XX_multiMode.oem3 (.text:RF_close)
                             0000620c   drivers_cc13x0.aem3 : SPICC26XXDMA.oem3 (.text:SPICC26XXDMA_transferCancel)
                             0000627c                       : SPICC26XXDMA.oem3 (.text:SPICC26XXDMA_transferCancel)
                             000062c8                       : SPICC26XXDMA.oem3 (.text:SPICC26XXDMA_transferCancel)
                             000062fc                       : UARTCC26XX.oem3 (.text:UARTCC26XX_write)
                             00006320                       : UARTCC26XX.oem3 (.text:UARTCC26XX_write)
                             00006376                       : UARTCC26XX.oem3 (.text:UARTCC26XX_write)
                             000065a8                       : I2CCC26XX.oem3 (.text:I2CCC26XX_transfer)
                             000065ba                       : I2CCC26XX.oem3 (.text:I2CCC26XX_transfer)
                             0000690a   rf_multiMode_cc13x0.aem3 : RFCC26XX_multiMode.oem3 (.text:RF_swiHw)
                             00006b04                            : RFCC26XX_multiMode.oem3 (.text:RF_control)
                             00006c7e   drivers_cc13x0.aem3 : PowerCC26XX.oem3 (.text:Power_releaseDependency)
                             00006d3c   rf_multiMode_cc13x0.aem3 : RFCC26XX_multiMode.oem3 (.text:RF_postCmd)
                             00006dec   drivers_cc13x0.aem3 : PowerCC26XX.oem3 (.text:Power_setDependency)
                             000073d6                       : PowerCC26XX.oem3 (.text:switchXOSCHFclockFunc)
                             00007e22                       : I2CCC26XX.oem3 (.text:I2CCC26XX_cancel)
                             00008098                       : UARTCC26XX.oem3 (.text:UARTCC26XX_writeCancel)
                             000080ae                       : UARTCC26XX.oem3 (.text:UARTCC26XX_writeCancel)
                             000080e2                       : UARTCC26XX.oem3 (.text:UARTCC26XX_writeCancel)
                             000081f4                       : SPICC26XXDMA.oem3 (.text:SPICC26XXDMA_swiFxn)
                             000085a8   rf_multiMode_cc13x0.aem3 : RFCC26XX_multiMode.oem3 (.text:RF_issueRadioFreeCb)
                             000085c0                            : RFCC26XX_multiMode.oem3 (.text:RF_issueRadioFreeCb)
                             00008664   drivers_cc13x0.aem3 : UARTCC26XX.oem3 (.text:writeTxFifoFlush)
                             000087be   rf_multiMode_cc13x0.aem3 : RFCC26XX_multiMode.oem3 (.text:RF_ratFreeChannel)
                             00008b50                            : RFCC26XX_multiMode.oem3 (.text:RF_yield)
                             00008b84                            : RFCC26XX_multiMode.oem3 (.text:RF_yield)
                             00008fb2   drivers_cc13x0.aem3 : PowerCC26XX_calibrateRCOSC.oem3 (.text:PowerCC26XX_initiateCalibration)
                             0000965a   rf_multiMode_cc13x0.aem3 : RFCC26XX_multiMode.oem3 (.text:RF_dispatchNextEvent)
                             00009804                            : RFCC26XX_multiMode.oem3 (.text:RF_getCurrentTime)
                             0000983a                            : RFCC26XX_multiMode.oem3 (.text:RF_getCurrentTime)
                             00009958   drivers_cc13x0.aem3 : UARTCC26XX.oem3 (.text:UARTCC26XX_control)
                             00009ca8                       : UDMACC26XX.oem3 (.text:UDMACC26XX_open)
                             0000a794                       : UARTCC26XX.oem3 (.text:UARTCC26XX_readCancel)
                             0000a7a8                       : UARTCC26XX.oem3 (.text:UARTCC26XX_readCancel)
                             0000a836                       : PINCC26XX.oem3 (.text:PIN_setOutputEnable)
                             0000a9be                       : RingBuf.oem3 (.text:RingBuf_put)
                             0000a9e8                       : RingBuf.oem3 (.text:RingBuf_put)
                             0000abb2                       : I2C.oem3 (.text:I2C_init)
                             0000acf2                       : SPI.oem3 (.text:SPI_init)
                             0000ad72                       : UART.oem3 (.text:UART_init)
                             0000af2e                       : RingBuf.oem3 (.text:RingBuf_get)
                             0000af36                       : RingBuf.oem3 (.text:RingBuf_get)
                             0000afe0                       : PowerCC26XX.oem3 (.text:PowerCC26XX_isStableXOSC_HF)
                             0000b066   rf_multiMode_cc13x0.aem3 : RFCC26XX_multiMode.oem3 (.text:RF_cmdStoreEvents)
                             0000b260                            : RFCC26XX_multiMode.oem3 (.text:RF_powerConstraintRelease)
                             0000b496   drivers_cc13x0.aem3 : UDMACC26XX.oem3 (.text:UDMACC26XX_close)
                             0000b52e                       : PowerCC26XX.oem3 (.text:Power_releaseConstraint)
                             0000b85c                       : PowerCC26XX.oem3 (.text:Power_setConstraint)
                             0000ba0e   rf_multiMode_cc13x0.aem3 : RFCC26XX_multiMode.oem3 (.text:RF_queueEnd)
                             0000bc3c   scif_framework.obj (.text:osalLockCtrlTaskNbl)
                             0000bc4c   scif_framework.obj (.text:osalLockCtrlTaskNbl)
                             0000bee6   drivers_cc13x0.aem3 : List.oem3 (.text:List_remove)
                             0000c0da                       : List.oem3 (.text:List_get)
                             0000c0fe                       : List.oem3 (.text:List_insert)
                             0000c120                       : List.oem3 (.text:List_put)
                             0000c142                       : List.oem3 (.text:List_putHead)
                             0000c19c                       : PowerCC26XX.oem3 (.text:Power_unregisterNotify)
                             0000c262                       : UARTCC26XX.oem3 (.text:threadSafeStdbyDisRelease)
                             0000c282                       : UARTCC26XX.oem3 (.text:threadSafeStdbyDisSet)
                             0000c458   rf_multiMode_cc13x0.aem3 : RFCC26XX_multiMode.oem3 (.text:RF_powerConstraintSet)
                             0000c97e   drivers_cc13x0.aem3 : List.oem3 (.text:List_clearList)
                             0000ce4a   scif_framework.obj (.text:scifOsalLeaveCriticalSection)
xdc_runtime_System_abort__E  $Tramp$TT$L$PI$$xdc_runtime_System_abort__E
   1001c745     00000ea8     00000bf2   rfPacketTx.obj (.text:nodeTaskFunction)
                             00000c3c   rfPacketTx.obj (.text:nodeTaskFunction)
                             00000c4e   rfPacketTx.obj (.text:nodeTaskFunction)
                             00002482   NodeRadioTask.obj (.text:nodeRadioTaskFunction)
                             000024d4   NodeRadioTask.obj (.text:nodeRadioTaskFunction)
                             000025b4   NodeRadioTask.obj (.text:nodeRadioTaskFunction)
                             00003d5c   NodeRadioTask.obj (.text:sendDmPacket)
                             00003d6c   NodeRadioTask.obj (.text:sendDmPacket)
                             00008c10   NodeRadioTask.obj (.text:resendPacket)
                             00008c20   NodeRadioTask.obj (.text:resendPacket)
ti_sysbios_knl_Clock_setTimeout__E  $Tramp$TT$L$PI$$ti_sysbios_knl_Clock_setTimeout__E
   1001c2bd     00000eb0     00000c1c   rfPacketTx.obj (.text:nodeTaskFunction)
                             00006162   dpl_cc13x0.aem3 : PowerCC26XX_tirtos.oem3 (.text:PowerCC26XX_standbyPolicy)
                             0000d03a                   : ClockP_tirtos.oem3 (.text:ClockP_setTimeout)
ti_sysbios_knl_Clock_start__E  $Tramp$TT$L$PI$$ti_sysbios_knl_Clock_start__E
   1001bfdf     00000eb8     00000c24   rfPacketTx.obj (.text:nodeTaskFunction)
                             00006168   dpl_cc13x0.aem3 : PowerCC26XX_tirtos.oem3 (.text:PowerCC26XX_standbyPolicy)
                             0000b594   rfPacketTx.obj (.text:buttonCallback)
                             0000c2da   rom_sysbios.aem3 : rom_sysbios.obj (.text:ti_sysbios_knl_Clock_stop__E)
                             0000d03e   dpl_cc13x0.aem3 : ClockP_tirtos.oem3 (.text:ClockP_start)
ti_sysbios_knl_Task_sleep__E  $Tramp$TT$L$PI$$ti_sysbios_knl_Task_sleep__E
   1001a9d9     00000ec0     00000ce8   rfPacketTx.obj (.text:nodeTaskFunction)
                             000027bc   EasyLink.obj (.text:enableTestMode)
                             000072ea   SensorMpu9250.obj (.text:sensorMagInit)
                             00007f9e   SensorMpu9250.obj (.text:SensorMpu9250_reset)
                             00008bbe   SensorMpu9250.obj (.text:SensorMpu9250_test)
                             0000a704   SensorMpu9250.obj (.text:sensorMpu9250SetBypass)
                             0000b734   rom_sysbios.aem3 : rom_sysbios.obj (.text:usleep)
                             0000b8b0   SensorMpu9250.obj (.text:SensorMpu9250_powerOn)
ti_sysbios_knl_Swi_destruct  $Tramp$TT$L$PI$$ti_sysbios_knl_Swi_destruct
   1001c2e5     0000d0b4     0000d072   dpl_cc13x0.aem3 : SwiP_tirtos.oem3 (.text:SwiP_destruct)
ti_sysbios_family_arm_m3_Hwi_setPriority__E  $Tramp$TT$L$PI$$ti_sysbios_family_arm_m3_Hwi_setPriority__E
   1001be81     0000d0bc     0000d05e   dpl_cc13x0.aem3 : HwiP_tirtos.oem3 (.text:HwiP_setPriority)
ti_sysbios_family_arm_m3_Hwi_destruct  $Tramp$TT$L$PI$$ti_sysbios_family_arm_m3_Hwi_destruct
   1001c25d     0000d0c4     0000d046   dpl_cc13x0.aem3 : HwiP_tirtos.oem3 (.text:HwiP_destruct)
ti_sysbios_BIOS_getCpuFreq__E  $Tramp$TT$L$PI$$ti_sysbios_BIOS_getCpuFreq__E
   1001bff5     0000d0cc     0000d032   dpl_cc13x0.aem3 : ClockP_tirtos.oem3 (.text:ClockP_getCpuFreq)
ti_sysbios_knl_Clock_destruct  $Tramp$TT$L$PI$$ti_sysbios_knl_Clock_destruct
   1001c2b5     0000d0d4     0000d02e   dpl_cc13x0.aem3 : ClockP_tirtos.oem3 (.text:ClockP_destruct)
ti_sysbios_family_arm_m3_Hwi_enableInterrupt__E  $Tramp$TT$L$PI$$ti_sysbios_family_arm_m3_Hwi_enableInterrupt__E
   1001b295     0000d0dc     0000cf6e   scif_framework.obj (.text:osalEnableCtrlReadyInt)
                             0000cf82   scif_framework.obj (.text:scifOsalEnableTaskAlertInt)
                             0000d052   dpl_cc13x0.aem3 : HwiP_tirtos.oem3 (.text:HwiP_enableInterrupt)
ti_sysbios_family_arm_m3_Hwi_disableInterrupt__E  $Tramp$TT$L$PI$$ti_sysbios_family_arm_m3_Hwi_disableInterrupt__E
   1001b251     0000d0e4     0000cf64   scif_framework.obj (.text:osalDisableCtrlReadyInt)
                             0000cf78   scif_framework.obj (.text:scifOsalDisableTaskAlertInt)
                             0000d04e   dpl_cc13x0.aem3 : HwiP_tirtos.oem3 (.text:HwiP_disableInterrupt)
xdc_runtime_Core_assignParams__I  $Tramp$TT$L$PI$$xdc_runtime_Core_assignParams__I
   1001c5ed     0000d0ec     0000ce78   release_pem3.oem3 (.text:ti_sysbios_knl_Event_Params__init__S)
ti_sysbios_knl_Semaphore_delete  $Tramp$TT$L$PI$$ti_sysbios_knl_Semaphore_delete
   1001c2d9     0000d0f4     0000cdba   dpl_cc13x0.aem3 : SemaphoreP_tirtos.oem3 (.text:SemaphoreP_delete)
xdc_runtime_Startup_startMods__I  $Tramp$TT$L$PI$$xdc_runtime_Startup_startMods__I
   1001c309     0000d0fc     0000cb78   release_pem3.oem3 (.text:xdc_runtime_Startup_exec__I)
ti_sysbios_knl_Clock_logTick__E  $Tramp$TT$L$PI$$ti_sysbios_knl_Clock_logTick__E
   1001be63     0000d104     0000caee   release_pem3.oem3 (.text:ti_sysbios_knl_Clock_doTick__I)
ti_sysbios_knl_Swi_post__E  $Tramp$TT$L$PI$$ti_sysbios_knl_Swi_post__E
   1001b31d     0000d10c     0000c7b4   rom_sysbios.aem3 : rom_sysbios.obj (.text:ti_sysbios_knl_Swi_or__E)
                             0000caf6   release_pem3.oem3 (.text:ti_sysbios_knl_Clock_doTick__I)
                             0000d082   dpl_cc13x0.aem3 : SwiP_tirtos.oem3 (.text:SwiP_post)
ti_sysbios_BIOS_RtsGateProxy_leave__E  $Tramp$TT$L$PI$$ti_sysbios_BIOS_RtsGateProxy_leave__E
   1001c249     0000d114     0000c796   release_pem3.oem3 (.text:ti_sysbios_BIOS_rtsUnlock__I)
ti_sysbios_knl_Swi_construct  $Tramp$TT$L$PI$$ti_sysbios_knl_Swi_construct
   1001b085     0000d11c     0000c52e   rom_sysbios.aem3 : rom_sysbios.obj (.text:ti_sysbios_knl_Swi_construct2__E)
ti_sysbios_BIOS_RtsGateProxy_enter__E  $Tramp$TT$L$PI$$ti_sysbios_BIOS_RtsGateProxy_enter__E
   1001c245     0000d124     0000c28e   release_pem3.oem3 (.text:ti_sysbios_BIOS_rtsLock__I)
xdc_runtime_Core_constructObject__I  $Tramp$TT$L$PI$$xdc_runtime_Core_constructObject__I
   1001c635     0000d12c     0000bcc6   release_pem3.oem3 (.text:ti_sysbios_knl_Event_construct)
ti_sysbios_family_arm_m3_Hwi_disableFxn__E  $Tramp$TT$L$PI$$ti_sysbios_family_arm_m3_Hwi_disableFxn__E
   1001c145     0000d134     0000bc2e   scif_framework.obj (.text:osalLockCtrlTaskNbl)
                             0000cfe4   scif_framework.obj (.text:scifOsalEnterCriticalSection)
                             0000d04a   dpl_cc13x0.aem3 : HwiP_tirtos.oem3 (.text:HwiP_disable)
ti_sysbios_knl_Task_delete  $Tramp$TT$L$PI$$ti_sysbios_knl_Task_delete
   1001c2fd     0000d13c     0000bbbc   rom_sysbios.aem3 : rom_sysbios.obj (.text:_pthread_delete$44)
ti_sysbios_knl_Semaphore_destruct  $Tramp$TT$L$PI$$ti_sysbios_knl_Semaphore_destruct
   1001c2dd     0000d144     0000bbb0   rom_sysbios.aem3 : rom_sysbios.obj (.text:_pthread_delete$44)
                             0000d06a   dpl_cc13x0.aem3 : SemaphoreP_tirtos.oem3 (.text:SemaphoreP_destruct)
ti_sysbios_knl_Task_startup__E  $Tramp$TT$L$PI$$ti_sysbios_knl_Task_startup__E
   1001c305     0000d14c     0000b9ac   release_pem3.oem3 (.text:ti_sysbios_BIOS_startFunc__I)
ti_sysbios_knl_Swi_startup__E  $Tramp$TT$L$PI$$ti_sysbios_knl_Swi_startup__E
   1001c239     0000d154     0000b9a8   release_pem3.oem3 (.text:ti_sysbios_BIOS_startFunc__I)
ti_sysbios_hal_Hwi_startup__E  $Tramp$TT$L$PI$$ti_sysbios_hal_Hwi_startup__E
   1001c289     0000d15c     0000b9a4   release_pem3.oem3 (.text:ti_sysbios_BIOS_startFunc__I)
ti_sysbios_family_arm_cc26xx_Timer_startup__E  $Tramp$TT$L$PI$$ti_sysbios_family_arm_cc26xx_Timer_startup__E
   1001b791     0000d164     0000b9a0   release_pem3.oem3 (.text:ti_sysbios_BIOS_startFunc__I)
xdc_runtime_System_atexit__E  $Tramp$TT$L$PI$$xdc_runtime_System_atexit__E
   1001c67d     0000d16c     0000b998   release_pem3.oem3 (.text:ti_sysbios_BIOS_startFunc__I)
ti_sysbios_BIOS_setThreadType__E  $Tramp$TT$L$PI$$ti_sysbios_BIOS_setThreadType__E
   1001c041     0000d174     0000b964   release_pem3.oem3 (.text:ti_sysbios_BIOS_atExitFunc__I)
                             0000c860   release_pem3.oem3 (.text:ti_sysbios_BIOS_exitFunc__I)
ti_sysbios_knl_Swi_disable__E  $Tramp$TT$L$PI$$ti_sysbios_knl_Swi_disable__E
   1001c0d1     0000d17c     0000b95a   release_pem3.oem3 (.text:ti_sysbios_BIOS_atExitFunc__I)
                             0000c6a2   dpl_cc13x0.aem3 : PowerCC26XX_tirtos.oem3 (.text:PowerCC26XX_schedulerDisable)
                             0000d076                   : SwiP_tirtos.oem3 (.text:SwiP_disable)
ti_sysbios_knl_Queue_Object__get__S  $Tramp$TT$L$PI$$ti_sysbios_knl_Queue_Object__get__S
   1001bd65     0000d184     0000b6fe   rom_sysbios.aem3 : rom_sysbios.obj (.text:ti_sysbios_knl_Swi_setPri__E)
ti_sysbios_family_arm_m3_Hwi_construct  $Tramp$TT$L$PI$$ti_sysbios_family_arm_m3_Hwi_construct
   1001af29     0000d18c     0000b0fe   rom_sysbios.aem3 : rom_sysbios.obj (.text:ti_sysbios_family_arm_m3_Hwi_construct2__E)
                             0000b8e6   scif_framework.obj (.text:osalRegisterCtrlReadyInt)
                             0000b916   scif_framework.obj (.text:osalRegisterTaskAlertInt)
ti_sysbios_knl_Swi_Params__init__S  $Tramp$TT$L$PI$$ti_sysbios_knl_Swi_Params__init__S
   1001c1c9     0000d194     0000b086   dpl_cc13x0.aem3 : SwiP_tirtos.oem3 (.text:SwiP_construct)
ti_sysbios_family_arm_m3_Hwi_Params__init__S  $Tramp$TT$L$PI$$ti_sysbios_family_arm_m3_Hwi_Params__init__S
   1001c139     0000d19c     0000aee0   dpl_cc13x0.aem3 : HwiP_tirtos.oem3 (.text:HwiP_construct)
                             0000c87c   scif_framework.obj (.text:ti_sysbios_family_arm_m3_Hwi_Params_init)
xdc_runtime_System_exit__E  $Tramp$TT$L$PI$$xdc_runtime_System_exit__E
   1001c7cd     0000d1a4     0000aaa4   boot.aem3 : boot.oem3 (.text)
                             0000c866   release_pem3.oem3 (.text:ti_sysbios_BIOS_exitFunc__I)
ti_sysbios_knl_Clock_Params__init__S  $Tramp$TT$L$PI$$ti_sysbios_knl_Clock_Params__init__S
   1001c181     0000d1ac     0000a2b0   dpl_cc13x0.aem3 : ClockP_tirtos.oem3 (.text:ClockP_construct)
                             0000c892   rfPacketTx.obj (.text:ti_sysbios_knl_Clock_Params_init)
xdc_runtime_Error_raiseX__E  $Tramp$TT$L$PI$$xdc_runtime_Error_raiseX__E
   1001c765     0000d1b4     0000a12c   rom_sysbios.aem3 : rom_sysbios.obj (.text:ti_sysbios_heaps_HeapMem_alloc__E)
ti_sysbios_heaps_HeapMem_Module_GateProxy_leave__E  $Tramp$TT$L$PI$$ti_sysbios_heaps_HeapMem_Module_GateProxy_leave__E
   1001c29d     0000d1bc     0000a112   rom_sysbios.aem3 : rom_sysbios.obj (.text:ti_sysbios_heaps_HeapMem_alloc__E)
ti_sysbios_heaps_HeapMem_Module_GateProxy_enter__E  $Tramp$TT$L$PI$$ti_sysbios_heaps_HeapMem_Module_GateProxy_enter__E
   1001c299     0000d1c4     0000a0fc   rom_sysbios.aem3 : rom_sysbios.obj (.text:ti_sysbios_heaps_HeapMem_alloc__E)
ti_sysbios_heaps_HeapMem_restore__E  $Tramp$TT$L$PI$$ti_sysbios_heaps_HeapMem_restore__E
   1001c101     0000d1cc     00009d5c   rom_sysbios.aem3 : rom_sysbios.obj (.text:ti_sysbios_heaps_HeapMem_initPrimary__I)
ti_sysbios_heaps_HeapMem_Object__get__S  $Tramp$TT$L$PI$$ti_sysbios_heaps_HeapMem_Object__get__S
   1001b86d     0000d1d4     00009d2c   rom_sysbios.aem3 : rom_sysbios.obj (.text:ti_sysbios_heaps_HeapMem_initPrimary__I)
ti_sysbios_knl_Task_unblockI__E  $Tramp$TT$L$PI$$ti_sysbios_knl_Task_unblockI__E
   1001b9a1     0000d1dc     00008e90   rom_sysbios.aem3 : rom_sysbios.obj (.text:ti_sysbios_knl_Event_post__E)
                             0000bcfe                    : rom_sysbios.obj (.text:ti_sysbios_knl_Event_pendTimeout__I)
ti_sysbios_BIOS_start__E  $Tramp$TT$L$PI$$ti_sysbios_BIOS_start__E
   1001c051     0000d1e4     000088b6   main_tirtos.obj (.text:main)
xdc_runtime_Memory_free__E  $Tramp$TT$L$PI$$xdc_runtime_Memory_free__E
   1001c7fd     0000d1ec     0000830c   rom_sysbios.aem3 : rom_sysbios.obj (.text:_pthread_removeThreadKeys)
                             0000bbc8                    : rom_sysbios.obj (.text:_pthread_delete$44)
ti_sysbios_knl_Queue_next__E  $Tramp$TT$L$PI$$ti_sysbios_knl_Queue_next__E
   1001c2d5     0000d1f4     000082e6   rom_sysbios.aem3 : rom_sysbios.obj (.text:_pthread_removeThreadKeys)
ti_sysbios_knl_Queue_head__E  $Tramp$TT$L$PI$$ti_sysbios_knl_Queue_head__E
   1001c2d1     0000d1fc     000082d2   rom_sysbios.aem3 : rom_sysbios.obj (.text:_pthread_removeThreadKeys)
                             00008e66                    : rom_sysbios.obj (.text:ti_sysbios_knl_Event_post__E)
ti_sysbios_knl_Clock_scheduleNextTick__E  $Tramp$TT$L$PI$$ti_sysbios_knl_Clock_scheduleNextTick__E
   1001beb9     0000d204     00007c60   rom_sysbios.aem3 : rom_sysbios.obj (.text:ti_sysbios_knl_Clock_workFuncDynamic__E)
ti_sysbios_knl_Clock_walkQueueDynamic__E  $Tramp$TT$L$PI$$ti_sysbios_knl_Clock_walkQueueDynamic__E
   1001a809     0000d20c     00007c2a   rom_sysbios.aem3 : rom_sysbios.obj (.text:ti_sysbios_knl_Clock_workFuncDynamic__E)
                             00007c44                    : rom_sysbios.obj (.text:ti_sysbios_knl_Clock_workFuncDynamic__E)
ti_sysbios_knl_Clock_TimerProxy_getCurrentTick__E  $Tramp$TT$L$PI$$ti_sysbios_knl_Clock_TimerProxy_getCurrentTick__E
   1001c091     0000d214     00007bfa   rom_sysbios.aem3 : rom_sysbios.obj (.text:ti_sysbios_knl_Clock_workFuncDynamic__E)
                             0000bc96                    : rom_sysbios.obj (.text:ti_sysbios_knl_Clock_getTicksUntilInterrupt__E)
ti_sysbios_knl_Queue_empty__E  $Tramp$TT$L$PI$$ti_sysbios_knl_Queue_empty__E
   1001c10f     0000d21c     0000775c   rom_sysbios.aem3 : rom_sysbios.obj (.text:ti_sysbios_knl_Task_setPri__E)
                             000082b8                    : rom_sysbios.obj (.text:_pthread_removeThreadKeys)
                             00008e58                    : rom_sysbios.obj (.text:ti_sysbios_knl_Event_post__E)
ti_sysbios_knl_Queue_remove__E  $Tramp$TT$L$PI$$ti_sysbios_knl_Queue_remove__E
   1001c11d     0000d224     00007756   rom_sysbios.aem3 : rom_sysbios.obj (.text:ti_sysbios_knl_Task_setPri__E)
                             000082ee                    : rom_sysbios.obj (.text:_pthread_removeThreadKeys)
                             000082f4                    : rom_sysbios.obj (.text:_pthread_removeThreadKeys)
                             00008e7c                    : rom_sysbios.obj (.text:ti_sysbios_knl_Event_post__E)
                             0000bcf2                    : rom_sysbios.obj (.text:ti_sysbios_knl_Event_pendTimeout__I)
ti_sysbios_knl_Clock_construct  $Tramp$TT$L$PI$$ti_sysbios_knl_Clock_construct
   1001b575     0000d22c     0000742a   rfPacketTx.obj (.text:NodeTask_init)
                             0000a2ca   dpl_cc13x0.aem3 : ClockP_tirtos.oem3 (.text:ClockP_construct)
ti_sysbios_knl_Task_construct  $Tramp$TT$L$PI$$ti_sysbios_knl_Task_construct
   1001b125     0000d234     00006e78   NodeRadioTask.obj (.text:NodeRadioTask_init)
                             0000745a   rfPacketTx.obj (.text:NodeTask_init)
ti_sysbios_knl_Clock_removeI__E  $Tramp$TT$L$PI$$ti_sysbios_knl_Clock_removeI__E
   1001c2b9     0000d23c     000060d4   rom_sysbios.aem3 : rom_sysbios.obj (.text:ti_sysbios_knl_Event_pend__E)
                             000060f4                    : rom_sysbios.obj (.text:ti_sysbios_knl_Event_pend__E)
ti_sysbios_knl_Task_restore__E  $Tramp$TT$L$PI$$ti_sysbios_knl_Task_restore__E
   1001ba45     0000d244     000060c4   rom_sysbios.aem3 : rom_sysbios.obj (.text:ti_sysbios_knl_Event_pend__E)
                             000077a2                    : rom_sysbios.obj (.text:ti_sysbios_knl_Task_setPri__E)
                             000082c0                    : rom_sysbios.obj (.text:_pthread_removeThreadKeys)
                             00008320                    : rom_sysbios.obj (.text:_pthread_removeThreadKeys)
                             00008e9a                    : rom_sysbios.obj (.text:ti_sysbios_knl_Event_post__E)
                             0000a026                    : rom_sysbios.obj (.text:pthread_exit)
                             0000bfd4                    : rom_sysbios.obj (.text:_pthread_cleanupFxn)
                             0000c6bc   dpl_cc13x0.aem3 : PowerCC26XX_tirtos.oem3 (.text:PowerCC26XX_schedulerRestore)
ti_sysbios_knl_Clock_startI__E  $Tramp$TT$L$PI$$ti_sysbios_knl_Clock_startI__E
   1001a715     0000d24c     000060ba   rom_sysbios.aem3 : rom_sysbios.obj (.text:ti_sysbios_knl_Event_pend__E)
ti_sysbios_knl_Task_blockI__E  $Tramp$TT$L$PI$$ti_sysbios_knl_Task_blockI__E
   1001b611     0000d254     000060aa   rom_sysbios.aem3 : rom_sysbios.obj (.text:ti_sysbios_knl_Event_pend__E)
ti_sysbios_knl_Queue_enqueue__E  $Tramp$TT$L$PI$$ti_sysbios_knl_Queue_enqueue__E
   1001c1b1     0000d25c     000060a4   rom_sysbios.aem3 : rom_sysbios.obj (.text:ti_sysbios_knl_Event_pend__E)
                             00007774                    : rom_sysbios.obj (.text:ti_sysbios_knl_Task_setPri__E)
                             0000d09e                    : rom_sysbios.obj (.text:ti_sysbios_knl_Queue_insert__E)
ti_sysbios_knl_Task_disable__E  $Tramp$TT$L$PI$$ti_sysbios_knl_Task_disable__E
   1001c0f1     0000d264     00006094   rom_sysbios.aem3 : rom_sysbios.obj (.text:ti_sysbios_knl_Event_pend__E)
                             0000771c                    : rom_sysbios.obj (.text:ti_sysbios_knl_Task_setPri__E)
                             000082ae                    : rom_sysbios.obj (.text:_pthread_removeThreadKeys)
                             00008e5e                    : rom_sysbios.obj (.text:ti_sysbios_knl_Event_post__E)
                             0000a01a                    : rom_sysbios.obj (.text:pthread_exit)
                             0000b95e   release_pem3.oem3 (.text:ti_sysbios_BIOS_atExitFunc__I)
                             0000bfc6   rom_sysbios.aem3 : rom_sysbios.obj (.text:_pthread_cleanupFxn)
                             0000c69a   dpl_cc13x0.aem3 : PowerCC26XX_tirtos.oem3 (.text:PowerCC26XX_schedulerDisable)
ti_sysbios_knl_Task_self__E  $Tramp$TT$L$PI$$ti_sysbios_knl_Task_self__E
   1001c1e1     0000d26c     00006068   rom_sysbios.aem3 : rom_sysbios.obj (.text:ti_sysbios_knl_Event_pend__E)
                             0000ce2e                    : rom_sysbios.obj (.text:pthread_self)
                             0000cf8a   release_pem3.oem3 (.text:ti_sysbios_rts_ti_ReentSupport_getTlsAddr__I)
ti_sysbios_knl_Clock_addI__E  $Tramp$TT$L$PI$$ti_sysbios_knl_Clock_addI__E
   1001ba1d     0000d274     00006048   rom_sysbios.aem3 : rom_sysbios.obj (.text:ti_sysbios_knl_Event_pend__E)
ti_sysbios_knl_Task_create  $Tramp$TT$L$PI$$ti_sysbios_knl_Task_create
   1001ae19     0000d27c     00005e1e   rom_sysbios.aem3 : rom_sysbios.obj (.text:pthread_create)
ti_sysbios_knl_Semaphore_construct  $Tramp$TT$L$PI$$ti_sysbios_knl_Semaphore_construct
   1001b705     0000d284     00005e14   rom_sysbios.aem3 : rom_sysbios.obj (.text:pthread_create)
                             00006e1c   NodeRadioTask.obj (.text:NodeRadioTask_init)
                             00006e30   NodeRadioTask.obj (.text:NodeRadioTask_init)
                             00008d74   SensorI2C.obj (.text:SensorI2C_open)
                             0000b664   scif_framework.obj (.text:scifOsalInit)
                             0000bb72   dpl_cc13x0.aem3 : SemaphoreP_tirtos.oem3 (.text:SemaphoreP_constructBinary)
ti_sysbios_knl_Semaphore_Params__init__S  $Tramp$TT$L$PI$$ti_sysbios_knl_Semaphore_Params__init__S
   1001c1bd     0000d28c     00005e02   rom_sysbios.aem3 : rom_sysbios.obj (.text:pthread_create)
                             0000bb62   dpl_cc13x0.aem3 : SemaphoreP_tirtos.oem3 (.text:SemaphoreP_constructBinary)
                             0000bb8c                   : SemaphoreP_tirtos.oem3 (.text:SemaphoreP_createBinary)
                             0000c8d4   EasyLink.obj (.text:ti_sysbios_knl_Semaphore_Params_init)
                             0000c8ea   NodeRadioTask.obj (.text:ti_sysbios_knl_Semaphore_Params_init)
                             0000c900   SensorI2C.obj (.text:ti_sysbios_knl_Semaphore_Params_init)
                             0000c916   scif_framework.obj (.text:ti_sysbios_knl_Semaphore_Params_init)
ti_sysbios_knl_Queue_construct  $Tramp$TT$L$PI$$ti_sysbios_knl_Queue_construct
   1001b8f1     0000d294     00005df6   rom_sysbios.aem3 : rom_sysbios.obj (.text:pthread_create)
                             0000cb0c                    : rom_sysbios.obj (.text:ti_sysbios_knl_Event_Instance_init__E)
xdc_runtime_Memory_alloc__E  $Tramp$TT$L$PI$$xdc_runtime_Memory_alloc__E
   1001c485     0000d29c     00005d9e   rom_sysbios.aem3 : rom_sysbios.obj (.text:pthread_create)
ti_sysbios_knl_Task_Params__init__S  $Tramp$TT$L$PI$$ti_sysbios_knl_Task_Params__init__S
   1001c1d5     0000d2a4     00005d8a   rom_sysbios.aem3 : rom_sysbios.obj (.text:pthread_create)
                             0000c92c   NodeRadioTask.obj (.text:ti_sysbios_knl_Task_Params_init)
                             0000c942   rfPacketTx.obj (.text:ti_sysbios_knl_Task_Params_init)
ti_sysbios_knl_Swi_restore__E  $Tramp$TT$L$PI$$ti_sysbios_knl_Swi_restore__E
   1001b5dd     0000d2ac     00002a94   drivers_cc13x0.aem3 : PowerCC26XX.oem3 (.text:Power_sleep)
                             00006754   rf_multiMode_cc13x0.aem3 : RFCC26XX_multiMode.oem3 (.text:RF_pendCmd)
                             00006786                            : RFCC26XX_multiMode.oem3 (.text:RF_pendCmd)
                             000067d6                            : RFCC26XX_multiMode.oem3 (.text:RF_pendCmd)
                             0000c6b6   dpl_cc13x0.aem3 : PowerCC26XX_tirtos.oem3 (.text:PowerCC26XX_schedulerRestore)
ti_sysbios_knl_Clock_getTicks__E  $Tramp$TT$L$PI$$ti_sysbios_knl_Clock_getTicks__E
   1001b6d5     0000d2b4     000024e6   NodeRadioTask.obj (.text:nodeRadioTaskFunction)
                             00002508   NodeRadioTask.obj (.text:nodeRadioTaskFunction)
                             00006506   rfPacketTx.obj (.text:countSteps)
                             0000bd46   rom_sysbios.aem3 : rom_sysbios.obj (.text:ti_sysbios_knl_Clock_getTimeout__E)

[73 trampolines]
[287 trampoline calls]


GLOBAL SYMBOLS: SORTED ALPHABETICALLY BY Name 

address   name                                                                      
-------   ----                                                                      
0001177a  AESCBC_count                                                              
00011778  AESCCM_count                                                              
0001177d  AESCTRDRBG_count                                                          
0001177b  AESCTR_count                                                              
0001177c  AESECB_count                                                              
00011779  AESGCM_count                                                              
0001135c  BoardGpioInitTable                                                        
0000cf93  Board_init                                                                
0000cf9b  Board_initHook                                                            
0000c3a1  CC1350STK_initGeneral                                                     
000084c5  CC1350STK_sendExtFlashByte                                                
0000ab45  CC1350STK_shutDownExtFlash                                                
0000a4c5  CC1350STK_wakeUpExtFlash                                                  
0000ced5  ClockP_Params_init                                                        
0000a295  ClockP_construct                                                          
0000d02f  ClockP_destruct                                                           
0000d033  ClockP_getCpuFreq                                                         
1001b6d5  ClockP_getSystemTicks                                                     
0000d037  ClockP_getTimeout                                                         
0000cb81  ClockP_isActive                                                           
0000d03b  ClockP_setTimeout                                                         
0000d03f  ClockP_start                                                              
0000d043  ClockP_stop                                                               
20002154  ClockP_tickPeriod                                                         
00000fff  DisplayUartMin_clear                                                      
00001405  DisplayUartMin_clearLines                                                 
0000c7ff  DisplayUartMin_close                                                      
0000cff3  DisplayUartMin_control                                                    
000115d8  DisplayUartMin_fxnTable                                                   
0000cff9  DisplayUartMin_getType                                                    
0000360b  DisplayUartMin_init                                                       
0000a725  DisplayUartMin_open                                                       
0000a921  DisplayUartMin_vprintf                                                    
00011788  Display_config                                                            
0001177f  Display_count                                                             
00011824  Display_defaultParams                                                     
0000bd89  Display_doInit                                                            
00009a95  Display_doOpen                                                            
0000cfff  Display_doParamsInit                                                      
0000bd09  Display_doPrintf                                                          
0000c95d  EasyLink_Params_init                                                      
00005b8d  EasyLink_enableRxAddrFilter                                               
0000003d  EasyLink_init                                                             
00011825  EasyLink_numSupportedPhys                                                 
000030d1  EasyLink_receiveAsync                                                     
00005e59  EasyLink_setCtrl                                                          
20003390  EasyLink_supportedPhys                                                    
00002af5  EasyLink_transmit                                                         
0000b121  ExtFlash_close                                                            
00009479  ExtFlash_open                                                             
00001000  HEAPSIZE                                                                  
0000cb91  HwiP_Params_init                                                          
0000aec5  HwiP_construct                                                            
0000d047  HwiP_destruct                                                             
0000d04b  HwiP_disable                                                              
0000d04f  HwiP_disableInterrupt                                                     
0000d053  HwiP_enableInterrupt                                                      
0000d057  HwiP_post                                                                 
1001c215  HwiP_restore                                                              
0000d05b  HwiP_setFunc                                                              
0000d05f  HwiP_setPriority                                                          
00007da5  I2CCC26XX_cancel                                                          
00009af1  I2CCC26XX_close                                                           
0000d005  I2CCC26XX_control                                                         
00011654  I2CCC26XX_fxnTable                                                        
0000cedf  I2CCC26XX_init                                                            
00004511  I2CCC26XX_open                                                            
00006575  I2CCC26XX_transfer                                                        
0000cba1  I2C_Params_init                                                           
0000cee9  I2C_close                                                                 
00011794  I2C_config                                                                
00011780  I2C_count                                                                 
00011758  I2C_defaultParams                                                         
0000ab85  I2C_init                                                                  
0000abc5  I2C_open                                                                  
0000cef3  I2C_transfer                                                              
00011781  I2S_count                                                                 
0000c971  List_clearList                                                            
0000c0c1  List_get                                                                  
0000c0e3  List_insert                                                               
0000c105  List_put                                                                  
0000c127  List_putHead                                                              
0000bec9  List_remove                                                               
0000bdb1  NOROM_AONBatMonTemperatureGetDegC                                         
0000c985  NOROM_AONRTCCurrent64BitValueGet                                          
0000c591  NOROM_AONRTCCurrentCompareValueGet                                        
0000cd5f  NOROM_CPUcpsid                                                            
0000cd6b  NOROM_CPUcpsie                                                            
0000d00b  NOROM_CPUdelay                                                            
0000c3bd  NOROM_ChipInfo_GetChipFamily                                              
0000b779  NOROM_ChipInfo_GetChipType                                                
0000ac05  NOROM_ChipInfo_GetHwRevision                                              
0000c5a9  NOROM_ChipInfo_GetPackageType                                             
0000ba75  NOROM_DDI32RegWrite                                                       
0000baa1  NOROM_OSCClockSourceGet                                                   
00009735  NOROM_OSCClockSourceSet                                                   
000094dd  NOROM_OSCHF_AttemptToSwitchToXosc                                         
0000b4d5  NOROM_OSCHF_SwitchToRcOscTurnOffXosc                                      
0000c5c1  NOROM_OSCHF_TurnOnXosc                                                    
0000af41  NOROM_OSC_HPOSCRelativeFrequencyOffsetGet                                 
0000cd77  NOROM_OSC_HPOSCRelativeFrequencyOffsetToRFCoreFormatConvert               
0000c149  NOROM_RFCAdi3VcoLdoVoltageMode                                            
0000c5d9  NOROM_RFCCpeIntGetAndClear                                                
0000bacd  NOROM_RFCCpePatchReset                                                    
0000bdd9  NOROM_RFCDoorbellSendTo                                                   
0000cbb1  NOROM_RFCHwIntGetAndClear                                                 
0000be01  NOROM_RFCOverrideSearch                                                   
0000d063  NOROM_RFCOverrideUpdate                                                   
000067f5  NOROM_RFCRTrim                                                            
0000664d  NOROM_RFCRfTrimRead                                                       
0000cbc1  NOROM_RFCRfTrimSet                                                        
0000af7d  NOROM_RFCSynthPowerDown                                                   
00007165  NOROM_SetupAfterColdResetWakeupFromShutDownCfg1                           
00005c7d  NOROM_SetupAfterColdResetWakeupFromShutDownCfg2                           
00004a11  NOROM_SetupAfterColdResetWakeupFromShutDownCfg3                           
0000c5f1  NOROM_SetupGetTrimForAdcShModeEn                                          
0000c609  NOROM_SetupGetTrimForAdcShVbufEn                                          
00009139  NOROM_SetupGetTrimForAmpcompCtrl                                          
0000c621  NOROM_SetupGetTrimForAmpcompTh1                                           
0000c3d9  NOROM_SetupGetTrimForAmpcompTh2                                           
000091a1  NOROM_SetupGetTrimForAnabypassValue1                                      
0000c639  NOROM_SetupGetTrimForDblrLoopFilterResetVoltage                           
0000b7a9  NOROM_SetupGetTrimForRadcExtCfg                                           
0000c651  NOROM_SetupGetTrimForRcOscLfIBiasTrim                                     
0000c3f5  NOROM_SetupGetTrimForRcOscLfRtuneCtuneTrim                                
0000c169  NOROM_SetupGetTrimForXoscHfCtl                                            
0000cbd1  NOROM_SetupGetTrimForXoscHfFastStart                                      
0000cbe1  NOROM_SetupGetTrimForXoscHfIbiastherm                                     
0000c669  NOROM_SetupGetTrimForXoscLfRegulatorAndCmirrwrRatio                       
0000b7d9  NOROM_SetupSetAonRtcSubSecInc                                             
0000a2e5  NOROM_SetupSetCacheModeAccordingToCcfgSetting                             
00008aa9  NOROM_SetupSetVddrLevel                                                   
00007015  NOROM_SetupTrimDevice                                                     
00009209  NOROM_SysCtrlAdjustRechargeAfterPowerDown                                 
00001ff9  NOROM_SysCtrlSetRechargeBeforePowerDown                                   
00009271  NOROM_SysCtrl_DCDC_VoltageConditionalControl                              
0000c815  NOROM_ThisLibraryIsFor_CC13x0_HwRev20AndLater_HaltIfViolated              
0000cce1  NOROM_VIMSModeGet                                                         
00011782  NVS_count                                                                 
00006e05  NodeRadioTask_init                                                        
00009541  NodeRadioTask_sendAdcData                                                 
000073f5  NodeTask_init                                                             
0000ac45  PINCC26XX_getConfig                                                       
0000cbf1  PINCC26XX_getPinCount                                                     
000117cc  PINCC26XX_hwAttrs                                                         
0000b809  PINCC26XX_setMux                                                          
000092d9  PIN_add                                                                   
0000c329  PIN_close                                                                 
0000c681  PIN_getConfig                                                             
0000c999  PIN_getInputValue                                                         
0000c9ad  PIN_getOutputValue                                                        
000037c1  PIN_init                                                                  
00007495  PIN_open                                                                  
0000cd83  PIN_registerIntCb                                                         
00009e85  PIN_remove                                                                
0000b159  PIN_setConfig                                                             
0000b191  PIN_setInterrupt                                                          
0000a801  PIN_setOutputEnable                                                       
0000b1c9  PIN_setOutputValue                                                        
00011783  PWM_count                                                                 
00009b4d  PowerCC26XX_RCOSC_clockFunc                                               
00001811  PowerCC26XX_auxISR                                                        
00009795  PowerCC26XX_calibrate                                                     
0001166c  PowerCC26XX_config                                                        
00003b05  PowerCC26XX_doCalibrate                                                   
00008f8d  PowerCC26XX_initiateCalibration                                           
0000afb9  PowerCC26XX_isStableXOSC_HF                                               
2000327c  PowerCC26XX_module                                                        
0000c699  PowerCC26XX_schedulerDisable                                              
0000c6b1  PowerCC26XX_schedulerRestore                                              
00006111  PowerCC26XX_standbyPolicy                                                 
2000212c  PowerCC26XX_swiKey                                                        
0000d067  PowerCC26XX_switchXOSC_HF                                                 
20002128  PowerCC26XX_taskKey                                                       
0000cd91  Power_getConstraintMask                                                   
0000cd9d  Power_getDependencyCount                                                  
0000c347  Power_getTransitionLatency                                                
0000c6c9  Power_idleFunc                                                            
00005455  Power_init                                                                
0000be29  Power_registerNotify                                                      
0000b509  Power_releaseConstraint                                                   
00006bdd  Power_releaseDependency                                                   
0000b839  Power_setConstraint                                                       
00006d51  Power_setDependency                                                       
000028d1  Power_sleep                                                               
0000c189  Power_unregisterNotify                                                    
000117a0  RFCC26XX_hwAttrs                                                          
2000367c  RF_PROP_txPowerTable                                                      
0000c9c1  RF_Params_init                                                            
00005679  RF_close                                                                  
200039b4  RF_cmdFs                                                                  
200039cc  RF_cmdFs_preDef                                                           
20003890  RF_cmdPropRadioDivSetup                                                   
200038b8  RF_cmdPropRadioDivSetup_fsk                                               
200038e0  RF_cmdPropRadioDivSetup_lrm                                               
20003908  RF_cmdPropRadioDivSetup_sl_lr                                             
200037a0  RF_cmdPropRxAdv_preDef                                                    
200039e4  RF_cmdPropTx                                                              
00006a55  RF_control                                                                
000097f5  RF_getCurrentTime                                                         
00002ef9  RF_open                                                                   
00006721  RF_pendCmd                                                                
00006c99  RF_postCmd                                                                
0000cda9  RF_powerConstraintGet                                                     
0000b239  RF_powerConstraintRelease                                                 
0000c449  RF_powerConstraintSet                                                     
20003a5c  RF_prop                                                                   
20003a6c  RF_prop_fsk                                                               
20003a7c  RF_prop_lrm                                                               
20003a8c  RF_prop_sl_lr                                                             
0000be51  RF_runCmd                                                                 
00001b1d  RF_scheduleCmd                                                            
00008b1d  RF_yield                                                                  
0000aa79  ResetISR                                                                  
0000cb15  RingBuf_construct                                                         
0000af03  RingBuf_get                                                               
0000a9ad  RingBuf_put                                                               
UNDEFED   SHT$$INIT_ARRAY$$Base                                                     
UNDEFED   SHT$$INIT_ARRAY$$Limit                                                    
0000a241  SPICC26XXDMA_close                                                        
00007ec5  SPICC26XXDMA_control                                                      
00011684  SPICC26XXDMA_fxnTable                                                     
0000ccfd  SPICC26XXDMA_init                                                         
00005221  SPICC26XXDMA_open                                                         
00002231  SPICC26XXDMA_transfer                                                     
000061f5  SPICC26XXDMA_transferCancel                                               
0000ca11  SPI_Params_init                                                           
0000cefd  SPI_close                                                                 
0001169c  SPI_config                                                                
00011784  SPI_count                                                                 
000115f8  SPI_defaultParams                                                         
0000acc5  SPI_init                                                                  
0000ad05  SPI_open                                                                  
0000cf07  SPI_transfer                                                              
0000bea1  SafeHapiVoid                                                              
0000a199  SceAdc_init                                                               
0000ca25  SceAdc_registerAdcCallback                                                
0000bf7d  SceAdc_setReportInterval                                                  
0000cf11  SceAdc_start                                                              
0000bb51  SemaphoreP_constructBinary                                                
0000bb7d  SemaphoreP_createBinary                                                   
0000cdb5  SemaphoreP_delete                                                         
0000d06b  SemaphoreP_destruct                                                       
0000cb27  SemaphoreP_pend                                                           
0000d06f  SemaphoreP_post                                                           
00003971  SensorBmp280_convert                                                      
0000b431  SensorBmp280_enable                                                       
0000aa35  SensorBmp280_init                                                         
00009dd1  SensorBmp280_read                                                         
000089b9  SensorHdc1000_convert                                                     
0000b53d  SensorHdc1000_init                                                        
000087cd  SensorHdc1000_read                                                        
0000b869  SensorHdc1000_start                                                       
0000ca39  SensorI2C_deselect                                                        
00008d5d  SensorI2C_open                                                            
0000a5a9  SensorI2C_read                                                            
0000c465  SensorI2C_readReg                                                         
000075d5  SensorI2C_select                                                          
0000a5f5  SensorI2C_write                                                           
0000a1ed  SensorI2C_writeRead                                                       
0000966d  SensorI2C_writeReg                                                        
0000a967  SensorMpu9250_accRead                                                     
00009065  SensorMpu9250_accSetRange                                                 
0000a849  SensorMpu9250_enable                                                      
0000b271  SensorMpu9250_init                                                        
0000c545  SensorMpu9250_powerIsOn                                                   
0000b899  SensorMpu9250_powerOn                                                     
00007f55  SensorMpu9250_reset                                                       
00008b91  SensorMpu9250_test                                                        
00009855  SensorOpt3001_convert                                                     
0000b2a9  SensorOpt3001_enable                                                      
0000cdc1  SensorOpt3001_init                                                        
00008c79  SensorOpt3001_read                                                        
000098b5  SensorTmp007_enable                                                       
0000cf1b  SensorTmp007_init                                                         
00009f8d  SensorUtil_convertToLe                                                    
0000cc21  SwiP_Params_init                                                          
0000b06d  SwiP_construct                                                            
0000d073  SwiP_destruct                                                             
0000d077  SwiP_disable                                                              
0000d07b  SwiP_getTrigger                                                           
0000d07f  SwiP_or                                                                   
0000d083  SwiP_post                                                                 
1001b5dd  SwiP_restore                                                              
0000d087  SwiP_setPriority                                                          
0000d08b  SystemP_vsnprintf                                                         
0001177e  TRNG_count                                                                
000085cd  UARTCC26XX_close                                                          
00009915  UARTCC26XX_control                                                        
00011540  UARTCC26XX_fxnTable                                                       
0000465d  UARTCC26XX_hwiIntFxn                                                      
0000cfb3  UARTCC26XX_init                                                           
00004101  UARTCC26XX_open                                                           
00000ec9  UARTCC26XX_read                                                           
0000a76f  UARTCC26XX_readCancel                                                     
0000d017  UARTCC26XX_readPolling                                                    
00009a35  UARTCC26XX_swiIntFxn                                                      
000062d9  UARTCC26XX_write                                                          
00008075  UARTCC26XX_writeCancel                                                    
0000d01d  UARTCC26XX_writePolling                                                   
0000c711  UART_Params_init                                                          
0000cf25  UART_close                                                                
000117ac  UART_config                                                               
0000cf2f  UART_control                                                              
00011785  UART_count                                                                
00011590  UART_defaultParams                                                        
0000ad45  UART_init                                                                 
0000ad85  UART_open                                                                 
0000cf39  UART_write                                                                
0000b467  UDMACC26XX_close                                                          
000117d4  UDMACC26XX_config                                                         
0000cf43  UDMACC26XX_hwiIntFxn                                                      
00009c61  UDMACC26XX_open                                                           
00011786  Watchdog_count                                                            
00000000  __ASM__                                                                   
0000008c  __ISA__                                                                   
0000009e  __PLAT__                                                                  
20005000  __STACK_END                                                               
00000400  __STACK_SIZE                                                              
000000c5  __TARG__                                                                  
00011c60  __TI_CINIT_Base                                                           
00011ce0  __TI_CINIT_Limit                                                          
00011bf8  __TI_Handler_Table_Base                                                   
00011c04  __TI_Handler_Table_Limit                                                  
00007675  __TI_auto_init                                                            
00009341  __TI_decompress_lzss                                                      
0000cd0b  __TI_decompress_none                                                      
ffffffff  __TI_pprof_out_hndl                                                       
ffffffff  __TI_prof_data_size                                                       
ffffffff  __TI_prof_data_start                                                      
00011828  __TI_static_base__                                                        
0000ce09  __TI_zero_init                                                            
000000ea  __TRDR__                                                                  
000083b9  __aeabi_cdcmpeq                                                           
000083b9  __aeabi_cdcmple                                                           
0000843f  __aeabi_cdrcmple                                                          
00009975  __aeabi_cfrcmple                                                          
00008ead  __aeabi_d2f                                                               
0000a891  __aeabi_d2iz                                                              
0000aabd  __aeabi_d2uiz                                                             
0000345f  __aeabi_dadd                                                              
000047a5  __aeabi_ddiv                                                              
00005995  __aeabi_dmul                                                              
00003455  __aeabi_dsub                                                              
0000d08f  __aeabi_errno_addr                                                        
0000b389  __aeabi_f2d                                                               
0000b3c1  __aeabi_f2iz                                                              
00005a95  __aeabi_fadd                                                              
00007d13  __aeabi_fdiv                                                              
000088c5  __aeabi_fmul                                                              
00005a91  __aeabi_fsub                                                              
0000ba45  __aeabi_i2d                                                               
00008f1b  __aeabi_idiv0                                                             
00008f1b  __aeabi_ldiv0                                                             
0000c759  __aeabi_lmul                                                              
0000893f  __aeabi_memclr                                                            
0000893f  __aeabi_memclr4                                                           
0000893f  __aeabi_memclr8                                                           
00007851  __aeabi_memcpy                                                            
00007851  __aeabi_memcpy4                                                           
00007851  __aeabi_memcpy8                                                           
00008941  __aeabi_memset                                                            
00008941  __aeabi_memset4                                                           
00008941  __aeabi_memset8                                                           
0000c229  __aeabi_ui2d                                                              
0000c031  __aeabi_ui2f                                                              
0000ae05  __aeabi_uidiv                                                             
0000ae05  __aeabi_uidivmod                                                          
00007c7d  __aeabi_uldivmod                                                          
ffffffff  __binit__                                                                 
ffffffff  __c_args__                                                                
0001ffa8  __ccfg                                                                    
20003168  __primary_heap_end__                                                      
20002168  __primary_heap_start__                                                    
20004c00  __stack                                                                   
0000c729  _args_main                                                                
0000aa79  _c_int00                                                                  
20003ad8  _lock                                                                     
00005b8b  _nop                                                                      
0000bfc5  _pthread_cleanupFxn                                                       
0000c841  _pthread_cleanup_pop                                                      
000082a9  _pthread_removeThreadKeys                                                 
0000cdf1  _register_lock                                                            
0000cdfd  _register_unlock                                                          
20003adc  _unlock                                                                   
0000c741  adcCallback                                                               
ffffffff  binit                                                                     
0000b571  buttonCallback                                                            
20003ab4  buttonPinTable                                                            
0000a68d  copy_in                                                                   
0000649d  countSteps                                                                
00009e2b  createTxAdvFromTx                                                         
200037ec  currentAccXValue                                                          
00011710  displayUartHWAttrs                                                        
20002110  displayUartObject                                                         
20002153  driverlib_release_0_3_05_20_00001                                         
00002cfd  exp2                                                                      
00002cfd  exp2l                                                                     
0000cc71  fastReportTimeoutCallback                                                 
20001df8  fastReportTimeoutClock                                                    
000116b4  i2cCC26xxHWAttrs                                                          
200015ec  i2cCC26xxObjects                                                          
200037d4  lastAdcValue                                                              
200037dc  lastStepTime                                                              
200037e8  latestAccXValue                                                           
2000211c  latestAccelerationAdcValue                                                
20002158  latestHumidAdcValue                                                       
2000215c  latestPressAdcValue                                                       
20002160  latestTempLocalAdcValue                                                   
200037d6  luxThreshold                                                              
00008849  main                                                                      
00003295  mainThread                                                                
20003b5c  main_func_sp                                                              
00007851  memcpy                                                                    
00008947  memset                                                                    
20002060  nodeEvent                                                                 
20001c58  nodeRadioTask                                                             
0000ce15  nodeRadioTask_getNodeAddr                                                 
20001ca8  nodeTask                                                                  
200035d0  pOverrides                                                                
20003574  pOverrides_fsk                                                            
20003514  pOverrides_lrm                                                            
200034a8  pOverrides_sl_lr                                                          
20003200  pinHandleTable                                                            
2000316c  pinLowerBound                                                             
20003ae8  pinTable                                                                  
20003168  pinUpperBound                                                             
0000c00d  pthread_attr_init                                                         
0000cd35  pthread_attr_setdetachstate                                               
0000ca9d  pthread_attr_setschedparam                                                
0000d023  pthread_attr_setstacksize                                                 
00005d6d  pthread_create                                                            
00009fe5  pthread_exit                                                              
0000ce2d  pthread_self                                                              
0000bc59  pthread_setcancelstate                                                    
20001fa0  radioAccessSem                                                            
20002074  radioOperationEvent                                                       
20001fbc  radioResultSem                                                            
0000b5d9  rand                                                                      
000113c0  resourceDB                                                                
0000b60d  scifAckAlertEvents                                                        
0000c771  scifClearAlertIntSource                                                   
00011510  scifDriverSetup                                                           
0000ce39  scifGetAlertEvents                                                        
00008dcd  scifGetTaskStruct                                                         
00005895  scifInit                                                                  
0000821d  scifInitIo                                                                
0000cf75  scifOsalDisableTaskAlertInt                                               
0000cf7f  scifOsalEnableTaskAlertInt                                                
0000cfe3  scifOsalEnterCriticalSection                                              
0000b641  scifOsalInit                                                              
0000ce45  scifOsalLeaveCriticalSection                                              
0000cab1  scifOsalRegisterCtrlReadyCallback                                         
0000cac5  scifOsalRegisterTaskAlertCallback                                         
0000a03d  scifReinitIo                                                              
0000ab01  scifStartRtcTicks                                                         
0000ae45  scifStartRtcTicksNow                                                      
0000cb4b  scifStartTasksNbl                                                         
0000a095  scifUninitIo                                                              
00011498  spiCC26XXDMAHWAttrs                                                       
200012f8  spiCC26XXDMAObjects                                                       
00003f91  sqrt                                                                      
00003f91  sqrtl                                                                     
200037d0  stepCount                                                                 
0000cad9  strlen                                                                    
200037e0  t                                                                         
200037f0  threshold                                                                 
200001a4  ti_sysbios_BIOS_Module__state__V                                          
1001bc25  ti_sysbios_BIOS_RtsGateProxy_Handle__label__S                             
1001bc25  ti_sysbios_BIOS_RtsGateProxy_Handle__label__S__mangled__                  
1001bab5  ti_sysbios_BIOS_RtsGateProxy_Object__delete__S                            
1001c175  ti_sysbios_BIOS_RtsGateProxy_Params__init__S                              
1001c175  ti_sysbios_BIOS_RtsGateProxy_Params__init__S__mangled__                   
1001c245  ti_sysbios_BIOS_RtsGateProxy_enter__E                                     
1001c249  ti_sysbios_BIOS_RtsGateProxy_leave__E                                     
1001c271  ti_sysbios_BIOS_RtsGateProxy_query__E                                     
1001c271  ti_sysbios_BIOS_RtsGateProxy_query__E__mangled__                          
0000b959  ti_sysbios_BIOS_atExitFunc__I                                             
0000c857  ti_sysbios_BIOS_exitFunc__I                                               
1001c031  ti_sysbios_BIOS_exit__E                                                   
1001bff5  ti_sysbios_BIOS_getCpuFreq__E                                             
0000ce5d  ti_sysbios_BIOS_getThreadType__E                                          
00008f8b  ti_sysbios_BIOS_linkedWithIncorrectBootLibrary__E                         
00009a93  ti_sysbios_BIOS_nullFunc__I                                               
0000c055  ti_sysbios_BIOS_registerRTSLock__I                                        
0000c079  ti_sysbios_BIOS_removeRTSLock__I                                          
0000c289  ti_sysbios_BIOS_rtsLock__I                                                
0000c789  ti_sysbios_BIOS_rtsUnlock__I                                              
1001c041  ti_sysbios_BIOS_setThreadType__E                                          
0000b989  ti_sysbios_BIOS_startFunc__I                                              
1001c051  ti_sysbios_BIOS_start__E                                                  
00007015  ti_sysbios_family_arm_cc26xx_Boot_trimDevice                              
00001406  ti_sysbios_family_arm_cc26xx_Timer_Module__id__C                          
1001bb45  ti_sysbios_family_arm_cc26xx_Timer_Module__startupDone__S                 
200001e4  ti_sysbios_family_arm_cc26xx_Timer_Module__state__V                       
1001ba6d  ti_sysbios_family_arm_cc26xx_Timer_Module_startup__E                      
20003718  ti_sysbios_family_arm_cc26xx_Timer_Object__table__V                       
0000c2a9  ti_sysbios_family_arm_cc26xx_Timer_dynamicStub__E                         
000117f8  ti_sysbios_family_arm_cc26xx_Timer_funcHookCH1__C                         
000117fc  ti_sysbios_family_arm_cc26xx_Timer_funcHookCH2__C                         
0000d097  ti_sysbios_family_arm_cc26xx_Timer_getCount64__E                          
0000b9b9  ti_sysbios_family_arm_cc26xx_Timer_getCurrentTick__E                      
1001c24d  ti_sysbios_family_arm_cc26xx_Timer_getExpiredTicks__E                     
0000c09d  ti_sysbios_family_arm_cc26xx_Timer_getMaxTicks__E                         
1001c251  ti_sysbios_family_arm_cc26xx_Timer_getPeriod__E                           
0000b6a9  ti_sysbios_family_arm_cc26xx_Timer_initDevice__I                          
1001a465  ti_sysbios_family_arm_cc26xx_Timer_periodicStub__E                        
1001b765  ti_sysbios_family_arm_cc26xx_Timer_postInit__I                            
0000b49d  ti_sysbios_family_arm_cc26xx_Timer_setNextTick__E                         
1001c255  ti_sysbios_family_arm_cc26xx_Timer_setPeriod__E                           
0000ae85  ti_sysbios_family_arm_cc26xx_Timer_setThreshold__I                        
00007fe5  ti_sysbios_family_arm_cc26xx_Timer_start__E                               
00001384  ti_sysbios_family_arm_cc26xx_Timer_startupNeeded__C                       
1001b791  ti_sysbios_family_arm_cc26xx_Timer_startup__E                             
200001ec  ti_sysbios_family_arm_cc26xx_TimestampProvider_Module__state__V           
1001bb65  ti_sysbios_family_arm_cc26xx_TimestampProvider_Module_startup__E          
0000cd51  ti_sysbios_family_arm_cc26xx_TimestampProvider_get32__E                   
1001b9cd  ti_sysbios_family_arm_cc26xx_TimestampProvider_get64__E                   
1001c12b  ti_sysbios_family_arm_cc26xx_TimestampProvider_getFreq__E                 
00001408  ti_sysbios_family_arm_cc26xx_TimestampProvider_useClockTimer__C           
00001388  ti_sysbios_family_arm_m3_Hwi_E_alreadyDefined__C                          
0000138c  ti_sysbios_family_arm_m3_Hwi_E_hwiLimitExceeded__C                        
1001aed1  ti_sysbios_family_arm_m3_Hwi_Instance_finalize__E                         
1001a3c5  ti_sysbios_family_arm_m3_Hwi_Instance_init__E                             
20003ad6  ti_sysbios_family_arm_m3_Hwi_Module_State_0_excActive__A                  
20003b60  ti_sysbios_family_arm_m3_Hwi_Module_State_0_excContext__A                 
20003b64  ti_sysbios_family_arm_m3_Hwi_Module_State_0_excStack__A                   
0000140a  ti_sysbios_family_arm_m3_Hwi_Module__id__C                                
20003af0  ti_sysbios_family_arm_m3_Hwi_Module__root__V                              
1001bb85  ti_sysbios_family_arm_m3_Hwi_Module__startupDone__S                       
20000144  ti_sysbios_family_arm_m3_Hwi_Module__state__V                             
1001b1c1  ti_sysbios_family_arm_m3_Hwi_Module_startup__E                            
00001390  ti_sysbios_family_arm_m3_Hwi_NUM_INTERRUPTS__C                            
000011d0  ti_sysbios_family_arm_m3_Hwi_Object__DESC__C                              
00001070  ti_sysbios_family_arm_m3_Hwi_Object__PARAMS__C                            
00001394  ti_sysbios_family_arm_m3_Hwi_Object__count__C                             
1001aab1  ti_sysbios_family_arm_m3_Hwi_Object__create__S                            
1001bba5  ti_sysbios_family_arm_m3_Hwi_Object__delete__S                            
1001be65  ti_sysbios_family_arm_m3_Hwi_Object__destruct__S                          
1001b7bd  ti_sysbios_family_arm_m3_Hwi_Object__get__S                               
00001398  ti_sysbios_family_arm_m3_Hwi_Object__table__C                             
20003a14  ti_sysbios_family_arm_m3_Hwi_Object__table__V                             
1001c139  ti_sysbios_family_arm_m3_Hwi_Params__init__S                              
0000139c  ti_sysbios_family_arm_m3_Hwi_ccr__C                                       
0000c50d  ti_sysbios_family_arm_m3_Hwi_clearInterrupt__E                            
1001af29  ti_sysbios_family_arm_m3_Hwi_construct                                    
0000b0e5  ti_sysbios_family_arm_m3_Hwi_construct2__E                                
1001ab15  ti_sysbios_family_arm_m3_Hwi_create                                       
1001c259  ti_sysbios_family_arm_m3_Hwi_delete                                       
1001c25d  ti_sysbios_family_arm_m3_Hwi_destruct                                     
1001c145  ti_sysbios_family_arm_m3_Hwi_disableFxn__E                                
1001b251  ti_sysbios_family_arm_m3_Hwi_disableInterrupt__E                          
1001aa49  ti_sysbios_family_arm_m3_Hwi_dispatchC__I                                 
200016cc  ti_sysbios_family_arm_m3_Hwi_dispatchTable                                
1001c899  ti_sysbios_family_arm_m3_Hwi_dispatch__I                                  
1001c1f7  ti_sysbios_family_arm_m3_Hwi_doSwiRestore__I                              
1001c20f  ti_sysbios_family_arm_m3_Hwi_doTaskRestore__I                             
1001c151  ti_sysbios_family_arm_m3_Hwi_enableFxn__E                                 
1001b295  ti_sysbios_family_arm_m3_Hwi_enableInterrupt__E                           
1001c9fd  ti_sysbios_family_arm_m3_Hwi_excHandlerAsm__I                             
000013a0  ti_sysbios_family_arm_m3_Hwi_excHandlerFunc__C                            
1001bbc5  ti_sysbios_family_arm_m3_Hwi_excHandler__I                                
1001b461  ti_sysbios_family_arm_m3_Hwi_getStackInfo__E                              
1001a695  ti_sysbios_family_arm_m3_Hwi_initNVIC__E                                  
1001c9b5  ti_sysbios_family_arm_m3_Hwi_initStacks__E                                
000013a4  ti_sysbios_family_arm_m3_Hwi_nullIsrFunc__C                               
000013a8  ti_sysbios_family_arm_m3_Hwi_numSparseInterrupts__C                       
e000e000  ti_sysbios_family_arm_m3_Hwi_nvic                                         
1001ca3b  ti_sysbios_family_arm_m3_Hwi_pendSV__I                                    
1001c061  ti_sysbios_family_arm_m3_Hwi_plug__E                                      
1001a315  ti_sysbios_family_arm_m3_Hwi_postInit__I                                  
0000cc91  ti_sysbios_family_arm_m3_Hwi_post__E                                      
000013ac  ti_sysbios_family_arm_m3_Hwi_priGroup__C                                  
20000000  ti_sysbios_family_arm_m3_Hwi_ramVectors                                   
00000000  ti_sysbios_family_arm_m3_Hwi_resetVectors                                 
1001c215  ti_sysbios_family_arm_m3_Hwi_restoreFxn__E                                
1001ca53  ti_sysbios_family_arm_m3_Hwi_return                                       
0000d029  ti_sysbios_family_arm_m3_Hwi_setFunc__E                                   
1001be81  ti_sysbios_family_arm_m3_Hwi_setPriority__E                               
1001c1ff  ti_sysbios_family_arm_m3_Hwi_startup__E                                   
1001c009  ti_sysbios_family_arm_m3_Hwi_switchFromBootStack__E                       
1001c261  ti_sysbios_family_arm_m3_TaskSupport_Module__startupDone__S               
1001c969  ti_sysbios_family_arm_m3_TaskSupport_buildTaskStack                       
1001c15d  ti_sysbios_family_arm_m3_TaskSupport_getStackAlignment__E                 
1001ca55  ti_sysbios_family_arm_m3_TaskSupport_glue                                 
000013b0  ti_sysbios_family_arm_m3_TaskSupport_stackAlignment__C                    
1001b499  ti_sysbios_family_arm_m3_TaskSupport_start__E                             
1001ca65  ti_sysbios_family_arm_m3_TaskSupport_swap__E                              
1001ca1d  ti_sysbios_family_xxx_Hwi_switchAndRunFunc                                
1001bbe5  ti_sysbios_gates_GateHwi_Handle__label__S                                 
1001b45f  ti_sysbios_gates_GateHwi_Instance_init__E                                 
0000111c  ti_sysbios_gates_GateHwi_Module__FXNS__C                                  
0000140c  ti_sysbios_gates_GateHwi_Module__id__C                                    
20003af8  ti_sysbios_gates_GateHwi_Module__root__V                                  
000011f0  ti_sysbios_gates_GateHwi_Object__DESC__C                                  
00001330  ti_sysbios_gates_GateHwi_Object__PARAMS__C                                
1001ba91  ti_sysbios_gates_GateHwi_Object__create__S                                
1001bc05  ti_sysbios_gates_GateHwi_Object__delete__S                                
1001c169  ti_sysbios_gates_GateHwi_enter__E                                         
1001c21b  ti_sysbios_gates_GateHwi_leave__E                                         
1001c265  ti_sysbios_gates_GateHwi_query__E                                         
1001bc25  ti_sysbios_gates_GateMutex_Handle__label__S                               
000014d0  ti_sysbios_gates_GateMutex_Instance_State_sem__O                          
1001c071  ti_sysbios_gates_GateMutex_Instance_finalize__E                           
1001be9d  ti_sysbios_gates_GateMutex_Instance_init__E                               
00001140  ti_sysbios_gates_GateMutex_Module__FXNS__C                                
0000140e  ti_sysbios_gates_GateMutex_Module__id__C                                  
20003b00  ti_sysbios_gates_GateMutex_Module__root__V                                
00001210  ti_sysbios_gates_GateMutex_Object__DESC__C                                
00001348  ti_sysbios_gates_GateMutex_Object__PARAMS__C                              
1001b645  ti_sysbios_gates_GateMutex_Object__create__S                              
1001bab5  ti_sysbios_gates_GateMutex_Object__delete__S                              
1001bc45  ti_sysbios_gates_GateMutex_Object__destruct__S                            
20003628  ti_sysbios_gates_GateMutex_Object__table__V                               
1001c175  ti_sysbios_gates_GateMutex_Params__init__S                                
1001b7e9  ti_sysbios_gates_GateMutex_construct                                      
1001b675  ti_sysbios_gates_GateMutex_create                                         
1001c269  ti_sysbios_gates_GateMutex_delete                                         
1001c26d  ti_sysbios_gates_GateMutex_destruct                                       
1001b6a5  ti_sysbios_gates_GateMutex_enter__E                                       
1001bf99  ti_sysbios_gates_GateMutex_leave__E                                       
1001c271  ti_sysbios_gates_GateMutex_query__E                                       
1001c275  ti_sysbios_hal_Hwi_HwiProxy_Module__startupDone__S                        
1001bb85  ti_sysbios_hal_Hwi_HwiProxy_Module__startupDone__S__mangled__             
1001c081  ti_sysbios_hal_Hwi_HwiProxy_Object__create__S                             
1001bba5  ti_sysbios_hal_Hwi_HwiProxy_Object__delete__S                             
1001c139  ti_sysbios_hal_Hwi_HwiProxy_Params__init__S                               
1001c139  ti_sysbios_hal_Hwi_HwiProxy_Params__init__S__mangled__                    
0000c50d  ti_sysbios_hal_Hwi_HwiProxy_clearInterrupt__E                             
1001be45  ti_sysbios_hal_Hwi_HwiProxy_create                                        
1001c279  ti_sysbios_hal_Hwi_HwiProxy_delete                                        
1001c27d  ti_sysbios_hal_Hwi_HwiProxy_disableInterrupt__E                           
1001b251  ti_sysbios_hal_Hwi_HwiProxy_disableInterrupt__E__mangled__                
1001c281  ti_sysbios_hal_Hwi_HwiProxy_enableInterrupt__E                            
1001b295  ti_sysbios_hal_Hwi_HwiProxy_enableInterrupt__E__mangled__                 
1001c285  ti_sysbios_hal_Hwi_HwiProxy_getStackInfo__E                               
1001b461  ti_sysbios_hal_Hwi_HwiProxy_getStackInfo__E__mangled__                    
0000cc91  ti_sysbios_hal_Hwi_HwiProxy_post__E                                       
1001c289  ti_sysbios_hal_Hwi_HwiProxy_startup__E                                    
1001c1ff  ti_sysbios_hal_Hwi_HwiProxy_startup__E__mangled__                         
1001c28d  ti_sysbios_hal_Hwi_HwiProxy_switchFromBootStack__E                        
1001c009  ti_sysbios_hal_Hwi_HwiProxy_switchFromBootStack__E__mangled__             
1001c1ed  ti_sysbios_hal_Hwi_Instance_finalize__E                                   
1001b9f5  ti_sysbios_hal_Hwi_Instance_init__E                                       
20003b08  ti_sysbios_hal_Hwi_Module__root__V                                        
1001c01d  ti_sysbios_hal_Hwi_Module_startup__E                                      
00001230  ti_sysbios_hal_Hwi_Object__DESC__C                                        
000010a0  ti_sysbios_hal_Hwi_Object__PARAMS__C                                      
1001bc65  ti_sysbios_hal_Hwi_Object__delete__S                                      
0000c50d  ti_sysbios_hal_Hwi_clearInterrupt__E                                      
1001ab79  ti_sysbios_hal_Hwi_create                                                 
1001c291  ti_sysbios_hal_Hwi_delete                                                 
1001c27d  ti_sysbios_hal_Hwi_disableInterrupt__E                                    
1001c27d  ti_sysbios_hal_Hwi_disableInterrupt__E                                    
1001c281  ti_sysbios_hal_Hwi_enableInterrupt__E                                     
1001c281  ti_sysbios_hal_Hwi_enableInterrupt__E                                     
1001c285  ti_sysbios_hal_Hwi_getStackInfo__E                                        
1001c285  ti_sysbios_hal_Hwi_getStackInfo__E                                        
1001b815  ti_sysbios_hal_Hwi_initStack                                              
0000cc91  ti_sysbios_hal_Hwi_post__E                                                
1001c289  ti_sysbios_hal_Hwi_startup__E                                             
1001c289  ti_sysbios_hal_Hwi_startup__E                                             
1001c295  ti_sysbios_hal_Hwi_switchFromBootStack__E                                 
1001c295  ti_sysbios_hal_Hwi_switchFromBootStack__E                                 
000013b4  ti_sysbios_heaps_HeapMem_E_memory__C                                      
1001bc85  ti_sysbios_heaps_HeapMem_Handle__label__S                                 
1001b4d1  ti_sysbios_heaps_HeapMem_Instance_init__E                                 
1001bc25  ti_sysbios_heaps_HeapMem_Module_GateProxy_Handle__label__S                
1001bc25  ti_sysbios_heaps_HeapMem_Module_GateProxy_Handle__label__S__mangled__     
1001bab5  ti_sysbios_heaps_HeapMem_Module_GateProxy_Object__delete__S               
1001c175  ti_sysbios_heaps_HeapMem_Module_GateProxy_Params__init__S                 
1001c175  ti_sysbios_heaps_HeapMem_Module_GateProxy_Params__init__S__mangled__      
1001c299  ti_sysbios_heaps_HeapMem_Module_GateProxy_enter__E                        
1001c29d  ti_sysbios_heaps_HeapMem_Module_GateProxy_leave__E                        
1001c271  ti_sysbios_heaps_HeapMem_Module_GateProxy_query__E                        
1001c271  ti_sysbios_heaps_HeapMem_Module_GateProxy_query__E__mangled__             
000010cc  ti_sysbios_heaps_HeapMem_Module__FXNS__C                                  
000013b8  ti_sysbios_heaps_HeapMem_Module__gateObj__C                               
00001410  ti_sysbios_heaps_HeapMem_Module__id__C                                    
20003b10  ti_sysbios_heaps_HeapMem_Module__root__V                                  
00001250  ti_sysbios_heaps_HeapMem_Object__DESC__C                                  
00001164  ti_sysbios_heaps_HeapMem_Object__PARAMS__C                                
000013bc  ti_sysbios_heaps_HeapMem_Object__count__C                                 
1001b841  ti_sysbios_heaps_HeapMem_Object__create__S                                
1001bca5  ti_sysbios_heaps_HeapMem_Object__delete__S                                
1001b86d  ti_sysbios_heaps_HeapMem_Object__get__S                                   
000013c0  ti_sysbios_heaps_HeapMem_Object__table__C                                 
20003a2c  ti_sysbios_heaps_HeapMem_Object__table__V                                 
00008a31  ti_sysbios_heaps_HeapMem_allocUnprotected__E                              
0000a0ed  ti_sysbios_heaps_HeapMem_alloc__E                                         
1001a791  ti_sysbios_heaps_HeapMem_free__E                                          
1001b209  ti_sysbios_heaps_HeapMem_getStats__E                                      
00009d19  ti_sysbios_heaps_HeapMem_initPrimary__I                                   
1001b541  ti_sysbios_heaps_HeapMem_init__I                                          
1001c2a1  ti_sysbios_heaps_HeapMem_isBlocking__E                                    
00011800  ti_sysbios_heaps_HeapMem_primaryHeapBaseAddr__C                           
00011804  ti_sysbios_heaps_HeapMem_primaryHeapEndAddr__C                            
000013c4  ti_sysbios_heaps_HeapMem_reqAlign__C                                      
1001c101  ti_sysbios_heaps_HeapMem_restore__E                                       
1001bfc9  ti_sysbios_knl_Clock_Instance_finalize__E                                 
1001b509  ti_sysbios_knl_Clock_Instance_init__E                                     
000014d4  ti_sysbios_knl_Clock_Module_State_clockQ__O                               
20003b18  ti_sysbios_knl_Clock_Module__root__V                                      
20000178  ti_sysbios_knl_Clock_Module__state__V                                     
1001bcc5  ti_sysbios_knl_Clock_Module_startup__E                                    
00001270  ti_sysbios_knl_Clock_Object__DESC__C                                      
00001188  ti_sysbios_knl_Clock_Object__PARAMS__C                                    
1001bad9  ti_sysbios_knl_Clock_Object__delete__S                                    
1001bce5  ti_sysbios_knl_Clock_Object__destruct__S                                  
20003958  ti_sysbios_knl_Clock_Object__table__V                                     
1001c181  ti_sysbios_knl_Clock_Params__init__S                                      
1001c2a5  ti_sysbios_knl_Clock_TimerProxy_Module__startupDone__S                    
1001bb45  ti_sysbios_knl_Clock_TimerProxy_Module__startupDone__S__mangled__         
1001c091  ti_sysbios_knl_Clock_TimerProxy_getCurrentTick__E                         
1001c2a9  ti_sysbios_knl_Clock_TimerProxy_getExpiredTicks__E                        
1001c0a1  ti_sysbios_knl_Clock_TimerProxy_getMaxTicks__E                            
1001c2ad  ti_sysbios_knl_Clock_TimerProxy_getPeriod__E                              
1001c0b1  ti_sysbios_knl_Clock_TimerProxy_setNextTick__E                            
1001b791  ti_sysbios_knl_Clock_TimerProxy_startup__E                                
1001b791  ti_sysbios_knl_Clock_TimerProxy_startup__E__mangled__                     
1001ba1d  ti_sysbios_knl_Clock_addI__E                                              
1001b575  ti_sysbios_knl_Clock_construct                                            
1001b3e9  ti_sysbios_knl_Clock_create                                               
1001c2b1  ti_sysbios_knl_Clock_delete                                               
1001c2b5  ti_sysbios_knl_Clock_destruct                                             
0000caed  ti_sysbios_knl_Clock_doTick__I                                            
0000bc85  ti_sysbios_knl_Clock_getTicksUntilInterrupt__E                            
1001b6d5  ti_sysbios_knl_Clock_getTicks__E                                          
0000bd33  ti_sysbios_knl_Clock_getTimeout__E                                        
1001c18d  ti_sysbios_knl_Clock_getTimerHandle__E                                    
0000d09b  ti_sysbios_knl_Clock_isActive__E                                          
1001be63  ti_sysbios_knl_Clock_logTick__E                                           
1001c2b9  ti_sysbios_knl_Clock_removeI__E                                           
1001beb9  ti_sysbios_knl_Clock_scheduleNextTick__E                                  
000013c8  ti_sysbios_knl_Clock_serviceMargin__C                                     
1001c2bd  ti_sysbios_knl_Clock_setTimeout__E                                        
1001a715  ti_sysbios_knl_Clock_startI__E                                            
1001bfdf  ti_sysbios_knl_Clock_start__E                                             
0000c2c9  ti_sysbios_knl_Clock_stop__E                                              
00001414  ti_sysbios_knl_Clock_tickMode__C                                          
00011808  ti_sysbios_knl_Clock_tickPeriod__C                                        
0001180c  ti_sysbios_knl_Clock_triggerClock__C                                      
0000a293  ti_sysbios_knl_Clock_triggerFunc__I                                       
1001a809  ti_sysbios_knl_Clock_walkQueueDynamic__E                                  
00007be5  ti_sysbios_knl_Clock_workFuncDynamic__E                                   
1001a881  ti_sysbios_knl_Clock_workFunc__E                                          
00011810  ti_sysbios_knl_Event_Instance_State_pendQ__O                              
0000cb01  ti_sysbios_knl_Event_Instance_init__E                                     
20003b20  ti_sysbios_knl_Event_Module__root__V                                      
00011618  ti_sysbios_knl_Event_Object__DESC__C                                      
000116e4  ti_sysbios_knl_Event_Object__PARAMS__C                                    
0000ce75  ti_sysbios_knl_Event_Params__init__S                                      
0000c2e9  ti_sysbios_knl_Event_checkEvents__I                                       
0000bcb1  ti_sysbios_knl_Event_construct                                            
0000bcdd  ti_sysbios_knl_Event_pendTimeout__I                                       
00006029  ti_sysbios_knl_Event_pend__E                                              
00008e3d  ti_sysbios_knl_Event_post__E                                              
000117e4  ti_sysbios_knl_Idle_funcList__A                                           
00001378  ti_sysbios_knl_Idle_funcList__C                                           
1001c207  ti_sysbios_knl_Idle_loop__E                                               
1001bd05  ti_sysbios_knl_Idle_run__E                                                
000014d8  ti_sysbios_knl_Mailbox_Instance_State_dataQue__O                          
000014dc  ti_sysbios_knl_Mailbox_Instance_State_dataSem__O                          
000014e0  ti_sysbios_knl_Mailbox_Instance_State_freeQue__O                          
000014e4  ti_sysbios_knl_Mailbox_Instance_State_freeSem__O                          
1001a8f9  ti_sysbios_knl_Mailbox_Instance_finalize__E                               
1001a0cd  ti_sysbios_knl_Mailbox_Instance_init__E                                   
20003b28  ti_sysbios_knl_Mailbox_Module__root__V                                    
1001b2d9  ti_sysbios_knl_Mailbox_Module_startup__E                                  
00001290  ti_sysbios_knl_Mailbox_Object__DESC__C                                    
0000103c  ti_sysbios_knl_Mailbox_Object__PARAMS__C                                  
000013cc  ti_sysbios_knl_Mailbox_Object__count__C                                   
1001bd25  ti_sysbios_knl_Mailbox_Object__delete__S                                  
1001bed5  ti_sysbios_knl_Mailbox_Object__destruct__S                                
1001b899  ti_sysbios_knl_Mailbox_Object__get__S                                     
000013d0  ti_sysbios_knl_Mailbox_Object__table__C                                   
1001c199  ti_sysbios_knl_Mailbox_Params__init__S                                    
1001af81  ti_sysbios_knl_Mailbox_construct                                          
1001abdd  ti_sysbios_knl_Mailbox_create                                             
1001c2c1  ti_sysbios_knl_Mailbox_delete                                             
1001c2c5  ti_sysbios_knl_Mailbox_destruct                                           
000013d4  ti_sysbios_knl_Mailbox_maxTypeAlign__C                                    
1001a969  ti_sysbios_knl_Mailbox_pend__E                                            
1001b8c5  ti_sysbios_knl_Mailbox_postInit__I                                        
1001a58d  ti_sysbios_knl_Mailbox_post__E                                            
1001c227  ti_sysbios_knl_Queue_Instance_init__E                                     
20003b30  ti_sysbios_knl_Queue_Module__root__V                                      
000012b0  ti_sysbios_knl_Queue_Object__DESC__C                                      
00001360  ti_sysbios_knl_Queue_Object__PARAMS__C                                    
000013d8  ti_sysbios_knl_Queue_Object__count__C                                     
1001bd45  ti_sysbios_knl_Queue_Object__delete__S                                    
1001bef1  ti_sysbios_knl_Queue_Object__destruct__S                                  
1001bd65  ti_sysbios_knl_Queue_Object__get__S                                       
000013dc  ti_sysbios_knl_Queue_Object__table__C                                     
1001b8f1  ti_sysbios_knl_Queue_construct                                            
1001b91d  ti_sysbios_knl_Queue_create                                               
1001c2c9  ti_sysbios_knl_Queue_delete                                               
1001c1a5  ti_sysbios_knl_Queue_dequeue__E                                           
1001c2cd  ti_sysbios_knl_Queue_destruct                                             
1001c22d  ti_sysbios_knl_Queue_elemClear__E                                         
1001c10f  ti_sysbios_knl_Queue_empty__E                                             
1001c1b1  ti_sysbios_knl_Queue_enqueue__E                                           
1001bf0d  ti_sysbios_knl_Queue_get__E                                               
1001c2d1  ti_sysbios_knl_Queue_head__E                                              
0000d09f  ti_sysbios_knl_Queue_insert__E                                            
1001c2d5  ti_sysbios_knl_Queue_next__E                                              
1001bf29  ti_sysbios_knl_Queue_put__E                                               
1001c11d  ti_sysbios_knl_Queue_remove__E                                            
000014e8  ti_sysbios_knl_Semaphore_Instance_State_pendQ__O                          
1001c0c1  ti_sysbios_knl_Semaphore_Instance_finalize__E                             
1001bafd  ti_sysbios_knl_Semaphore_Instance_init__E                                 
20003b38  ti_sysbios_knl_Semaphore_Module__root__V                                  
000012d0  ti_sysbios_knl_Semaphore_Object__DESC__C                                  
000011ac  ti_sysbios_knl_Semaphore_Object__PARAMS__C                                
1001bb21  ti_sysbios_knl_Semaphore_Object__delete__S                                
1001bd85  ti_sysbios_knl_Semaphore_Object__destruct__S                              
1001c1bd  ti_sysbios_knl_Semaphore_Params__init__S                                  
1001b705  ti_sysbios_knl_Semaphore_construct                                        
1001b5a9  ti_sysbios_knl_Semaphore_create                                           
1001c2d9  ti_sysbios_knl_Semaphore_delete                                           
1001c2dd  ti_sysbios_knl_Semaphore_destruct                                         
1001b949  ti_sysbios_knl_Semaphore_pendTimeout__I                                   
1001a001  ti_sysbios_knl_Semaphore_pend__E                                          
1001ac41  ti_sysbios_knl_Semaphore_post__E                                          
1001bf97  ti_sysbios_knl_Swi_Instance_finalize__E                                   
1001aca5  ti_sysbios_knl_Swi_Instance_init__E                                       
20003800  ti_sysbios_knl_Swi_Module_State_0_readyQ__A                               
20003b40  ti_sysbios_knl_Swi_Module__root__V                                        
200001c8  ti_sysbios_knl_Swi_Module__state__V                                       
1001c233  ti_sysbios_knl_Swi_Module_startup__E                                      
000012f0  ti_sysbios_knl_Swi_Object__DESC__C                                        
000010f4  ti_sysbios_knl_Swi_Object__PARAMS__C                                      
000013e0  ti_sysbios_knl_Swi_Object__count__C                                       
1001bda5  ti_sysbios_knl_Swi_Object__delete__S                                      
1001bf45  ti_sysbios_knl_Swi_Object__destruct__S                                    
1001b975  ti_sysbios_knl_Swi_Object__get__S                                         
000013e4  ti_sysbios_knl_Swi_Object__table__C                                       
20003830  ti_sysbios_knl_Swi_Object__table__V                                       
1001c1c9  ti_sysbios_knl_Swi_Params__init__S                                        
1001b085  ti_sysbios_knl_Swi_construct                                              
0000c529  ti_sysbios_knl_Swi_construct2__E                                          
1001ad05  ti_sysbios_knl_Swi_create                                                 
1001c2e1  ti_sysbios_knl_Swi_delete                                                 
1001c2e5  ti_sysbios_knl_Swi_destruct                                               
1001c0d1  ti_sysbios_knl_Swi_disable__E                                             
1001c0e1  ti_sysbios_knl_Swi_enabled__E                                             
0000cebd  ti_sysbios_knl_Swi_getTrigger__E                                          
000013e8  ti_sysbios_knl_Swi_numPriorities__C                                       
0000c7a1  ti_sysbios_knl_Swi_or__E                                                  
1001c2e9  ti_sysbios_knl_Swi_postInit__I                                            
1001b31d  ti_sysbios_knl_Swi_post__E                                                
1001ad61  ti_sysbios_knl_Swi_restoreHwi__E                                          
1001b5dd  ti_sysbios_knl_Swi_restore__E                                             
1001b0d5  ti_sysbios_knl_Swi_runLoop__I                                             
1001afd9  ti_sysbios_knl_Swi_run__I                                                 
1001b031  ti_sysbios_knl_Swi_schedule__I                                            
0000b6dd  ti_sysbios_knl_Swi_setPri__E                                              
1001c239  ti_sysbios_knl_Swi_startup__E                                             
200010f8  ti_sysbios_knl_Task_Instance_State_0_stack__A                             
1001a4f9  ti_sysbios_knl_Task_Instance_finalize__E                                  
1001a259  ti_sysbios_knl_Task_Instance_init__E                                      
20003b68  ti_sysbios_knl_Task_Module_State_0_idleTask__A                            
20003860  ti_sysbios_knl_Task_Module_State_0_readyQ__A                              
000014ec  ti_sysbios_knl_Task_Module_State_inactiveQ__O                             
20003b48  ti_sysbios_knl_Task_Module__root__V                                       
20000100  ti_sysbios_knl_Task_Module__state__V                                      
1001adbd  ti_sysbios_knl_Task_Module_startup__E                                     
00001310  ti_sysbios_knl_Task_Object__DESC__C                                       
00001000  ti_sysbios_knl_Task_Object__PARAMS__C                                     
000013ec  ti_sysbios_knl_Task_Object__count__C                                      
1001bdc5  ti_sysbios_knl_Task_Object__delete__S                                     
1001bf61  ti_sysbios_knl_Task_Object__destruct__S                                   
1001bde5  ti_sysbios_knl_Task_Object__get__S                                        
00011814  ti_sysbios_knl_Task_Object__heap__C                                       
000013f0  ti_sysbios_knl_Task_Object__table__C                                      
200036cc  ti_sysbios_knl_Task_Object__table__V                                      
1001c1d5  ti_sysbios_knl_Task_Params__init__S                                       
1001c2ed  ti_sysbios_knl_Task_SupportProxy_Module__startupDone__S                   
1001c261  ti_sysbios_knl_Task_SupportProxy_Module__startupDone__S__mangled__        
1001c2f1  ti_sysbios_knl_Task_SupportProxy_getStackAlignment__E                     
1001c15d  ti_sysbios_knl_Task_SupportProxy_getStackAlignment__E__mangled__          
1001c2f5  ti_sysbios_knl_Task_SupportProxy_start__E                                 
1001b499  ti_sysbios_knl_Task_SupportProxy_start__E__mangled__                      
1001c2f9  ti_sysbios_knl_Task_SupportProxy_swap__E                                  
1001ca65  ti_sysbios_knl_Task_SupportProxy_swap__E__mangled__                       
000013f4  ti_sysbios_knl_Task_allBlockedFunc__C                                     
1001b361  ti_sysbios_knl_Task_allBlockedFunction__I                                 
1001b611  ti_sysbios_knl_Task_blockI__E                                             
1001b125  ti_sysbios_knl_Task_construct                                             
1001ae19  ti_sysbios_knl_Task_create                                                
000013f8  ti_sysbios_knl_Task_defaultStackHeap__C                                   
000013fc  ti_sysbios_knl_Task_defaultStackSize__C                                   
1001c2fd  ti_sysbios_knl_Task_delete                                                
1001c301  ti_sysbios_knl_Task_destruct                                              
1001c0f1  ti_sysbios_knl_Task_disable__E                                            
1001c23f  ti_sysbios_knl_Task_enable__E                                             
1001be05  ti_sysbios_knl_Task_enter__I                                              
1001b425  ti_sysbios_knl_Task_exit__E                                               
0000d0a3  ti_sysbios_knl_Task_getArg1__E                                            
0000d0a7  ti_sysbios_knl_Task_getEnv__E                                             
00001412  ti_sysbios_knl_Task_initStackFlag__C                                      
00001400  ti_sysbios_knl_Task_numConstructedTasks__C                                
1001a611  ti_sysbios_knl_Task_postInit__I                                           
1001b735  ti_sysbios_knl_Task_processVitalTaskFlag__I                               
1001be25  ti_sysbios_knl_Task_restoreHwi__E                                         
1001ba45  ti_sysbios_knl_Task_restore__E                                            
1001b175  ti_sysbios_knl_Task_schedule__I                                           
1001c1e1  ti_sysbios_knl_Task_self__E                                               
00007715  ti_sysbios_knl_Task_setPri__E                                             
1001bf7d  ti_sysbios_knl_Task_sleepTimeout__I                                       
1001a9d9  ti_sysbios_knl_Task_sleep__E                                              
1001ae75  ti_sysbios_knl_Task_startCore__E                                          
1001c305  ti_sysbios_knl_Task_startup__E                                            
1001ca6d  ti_sysbios_knl_Task_swapReturn                                            
1001b9a1  ti_sysbios_knl_Task_unblockI__E                                           
1001bfb1  ti_sysbios_knl_Task_unblock__E                                            
1001b3a5  ti_sysbios_knl_Task_yield__E                                              
00001494  ti_sysbios_rom_ROM_AONRTCChannelEnable                                    
00001498  ti_sysbios_rom_ROM_AONRTCCompareValueSet                                  
0000149c  ti_sysbios_rom_ROM_AONRTCCurrentCompareValueGet                           
000014a0  ti_sysbios_rom_ROM_AONRTCEventClear                                       
000014a4  ti_sysbios_rom_ROM_ti_sysbios_family_arm_cc26xx_Timer_getCount64__E       
000014a8  ti_sysbios_rom_ROM_ti_sysbios_family_arm_cc26xx_Timer_getCurrentTick__E   
000014ac  ti_sysbios_rom_ROM_ti_sysbios_family_arm_cc26xx_Timer_getMaxTicks__E      
000014b0  ti_sysbios_rom_ROM_ti_sysbios_family_arm_cc26xx_Timer_initDevice__I       
000014b4  ti_sysbios_rom_ROM_ti_sysbios_family_arm_cc26xx_Timer_setNextTick__E      
000014b8  ti_sysbios_rom_ROM_ti_sysbios_family_arm_cc26xx_Timer_setThreshold__I     
000014bc  ti_sysbios_rom_ROM_ti_sysbios_family_arm_cc26xx_Timer_start__E            
000014c0  ti_sysbios_rom_ROM_ti_sysbios_family_arm_cc26xx_TimestampProvider_get32__E
000014c4  ti_sysbios_rom_ROM_xdc_runtime_Startup_getState__I                        
000014c8  ti_sysbios_rom_ROM_xdc_runtime_System_SupportProxy_abort__E               
000014cc  ti_sysbios_rom_ROM_xdc_runtime_System_SupportProxy_exit__E                
1001ca97  ti_sysbios_rom_cortexm_cc13xx_CC13xx_getRevision__E                       
0000c7b9  ti_sysbios_rts_ti_ReentSupport_getReent__E                                
0000c7b9  ti_sysbios_rts_ti_ReentSupport_getReent__F                                
0000cf89  ti_sysbios_rts_ti_ReentSupport_getTlsAddr__I                              
200037f8  totalAcc                                                                  
00011568  uartCC26XXHWAttrs                                                         
200014c0  uartCC26XXObjects                                                         
20001e9c  uartCC26XXRingBuffer                                                      
000117ec  udmaHWAttrs                                                               
20001ebc  udmaObjects                                                               
0000b711  usleep                                                                    
00000001  xdc_rov_runtime_Mon__checksum                                             
00000001  xdc_rov_runtime_Mon__write                                                
00001428  xdc_runtime_Assert_E_assertFailed__C                                      
1001c5a5  xdc_runtime_Assert_raise__I                                               
1001c6e9  xdc_runtime_Core_assignLabel__I                                           
1001c5ed  xdc_runtime_Core_assignParams__I                                          
1001c635  xdc_runtime_Core_constructObject__I                                       
1001c401  xdc_runtime_Core_createObject__I                                          
1001c4f5  xdc_runtime_Core_deleteObject__I                                          
1001c79d  xdc_runtime_Core_destructObject__I                                        
0000142c  xdc_runtime_Error_E_memory__C                                             
20003978  xdc_runtime_Error_IgnoreBlock                                             
1001c7b5  xdc_runtime_Error_check__E                                                
0000c7d1  xdc_runtime_Error_init__E                                                 
00001430  xdc_runtime_Error_policyFxn__C                                            
0000c309  xdc_runtime_Error_policyMin__E                                            
1001c483  xdc_runtime_Error_policySpin__E                                           
00001490  xdc_runtime_Error_policy__C                                               
1001c765  xdc_runtime_Error_raiseX__E                                               
1001c881  xdc_runtime_Gate_enterSystem__E                                           
1001c875  xdc_runtime_Gate_leaveSystem__E                                           
00001434  xdc_runtime_IGateProvider_Interface__BASE__C                              
00001438  xdc_runtime_IHeap_Interface__BASE__C                                      
0000143c  xdc_runtime_IModule_Interface__BASE__C                                    
1001bbe5  xdc_runtime_Main_Module_GateProxy_Handle__label__S                        
1001c265  xdc_runtime_Main_Module_GateProxy_query__E                                
00001440  xdc_runtime_Main_Module__diagsEnabled__C                                  
00001444  xdc_runtime_Main_Module__diagsIncluded__C                                 
00001448  xdc_runtime_Main_Module__diagsMask__C                                     
00001488  xdc_runtime_Main_Module__id__C                                            
1001bc85  xdc_runtime_Memory_HeapProxy_Handle__label__S                             
1001bc85  xdc_runtime_Memory_HeapProxy_Handle__label__S__mangled__                  
1001bca5  xdc_runtime_Memory_HeapProxy_Object__delete__S                            
1001c885  xdc_runtime_Memory_HeapProxy_alloc__E                                     
1001c889  xdc_runtime_Memory_HeapProxy_free__E                                      
0000148a  xdc_runtime_Memory_Module__id__C                                          
20000200  xdc_runtime_Memory_Module__state__V                                       
1001c485  xdc_runtime_Memory_alloc__E                                               
1001c849  xdc_runtime_Memory_calloc__E                                              
0000144c  xdc_runtime_Memory_defaultHeapInstance__C                                 
1001c7fd  xdc_runtime_Memory_free__E                                                
1001c855  xdc_runtime_Memory_getMaxDefaultTypeAlign__E                              
1001c781  xdc_runtime_Memory_valloc__E                                              
200001f0  xdc_runtime_Startup_Module__state__V                                      
00000001  xdc_runtime_Startup__EXECFXN__C                                           
00000001  xdc_runtime_Startup__RESETFXN__C                                          
00001450  xdc_runtime_Startup_execImpl__C                                           
1001c555  xdc_runtime_Startup_exec__E                                               
0000cb6f  xdc_runtime_Startup_exec__I                                               
000117b8  xdc_runtime_Startup_firstFxns__A                                          
00001418  xdc_runtime_Startup_firstFxns__C                                          
00009d75  xdc_runtime_Startup_getState__I                                           
00001420  xdc_runtime_Startup_lastFxns__C                                           
00001454  xdc_runtime_Startup_maxPasses__C                                          
0000d0ab  xdc_runtime_Startup_reset__I                                              
0000cec9  xdc_runtime_Startup_rtsDone__E                                            
00011724  xdc_runtime_Startup_sfxnRts__A                                            
00001458  xdc_runtime_Startup_sfxnRts__C                                            
000115b4  xdc_runtime_Startup_sfxnTab__A                                            
0000145c  xdc_runtime_Startup_sfxnTab__C                                            
00001460  xdc_runtime_Startup_startModsFxn__C                                       
1001c309  xdc_runtime_Startup_startMods__I                                          
00001464  xdc_runtime_SysCallback_abortFxn__C                                       
1001c80d  xdc_runtime_SysCallback_abort__E                                          
0000b4d3  xdc_runtime_SysCallback_defaultAbort                                      
0000b777  xdc_runtime_SysCallback_defaultExit                                       
0000ba73  xdc_runtime_SysCallback_defaultPutch                                      
0000d0af  xdc_runtime_SysCallback_defaultReady                                      
00001468  xdc_runtime_SysCallback_exitFxn__C                                        
1001c81d  xdc_runtime_SysCallback_exit__E                                           
00011818  xdc_runtime_SysCallback_putchFxn__C                                       
0000ccb1  xdc_runtime_SysCallback_putch__E                                          
0001181c  xdc_runtime_SysCallback_readyFxn__C                                       
0000ccc1  xdc_runtime_SysCallback_ready__E                                          
1001bbe5  xdc_runtime_System_Module_GateProxy_Handle__label__S                      
1001bbe5  xdc_runtime_System_Module_GateProxy_Handle__label__S__mangled__           
1001bc05  xdc_runtime_System_Module_GateProxy_Object__delete__S                     
1001c88d  xdc_runtime_System_Module_GateProxy_enter__E                              
1001c891  xdc_runtime_System_Module_GateProxy_leave__E                              
1001c265  xdc_runtime_System_Module_GateProxy_query__E                              
1001c265  xdc_runtime_System_Module_GateProxy_query__E__mangled__                   
20003b50  xdc_runtime_System_Module_State_0_atexitHandlers__A                       
200001f8  xdc_runtime_System_Module__state__V                                       
1001c87b  xdc_runtime_System_Module_startup__E                                      
1001c80d  xdc_runtime_System_SupportProxy_abort__E                                  
1001c81d  xdc_runtime_System_SupportProxy_exit__E                                   
0000ccb1  xdc_runtime_System_SupportProxy_putch__E                                  
0000ccc1  xdc_runtime_System_SupportProxy_ready__E                                  
0000146c  xdc_runtime_System_abortFxn__C                                            
1001c895  xdc_runtime_System_abortSpin__E                                           
1001c745  xdc_runtime_System_abort__E                                               
1001c67d  xdc_runtime_System_atexit__E                                              
000014f1  xdc_runtime_System_doPrint__I                                             
00001470  xdc_runtime_System_exitFxn__C                                             
1001c897  xdc_runtime_System_exitSpin__E                                            
1001c7cd  xdc_runtime_System_exit__E                                                
00011820  xdc_runtime_System_extendFxn__C                                           
00008f1d  xdc_runtime_System_formatNum__I                                           
00001474  xdc_runtime_System_maxAtexitHandlers__C                                   
00003e15  xdc_runtime_System_printfExtend__I                                        
1001c6b5  xdc_runtime_System_processAtExit__E                                       
0000bd5d  xdc_runtime_System_putchar__I                                             
0000ccd1  xdc_runtime_System_vsnprintf__E                                           
0000148c  xdc_runtime_Text_charCnt__C                                               
00011826  xdc_runtime_Text_charTab__A                                               
00001478  xdc_runtime_Text_charTab__C                                               
1001c719  xdc_runtime_Text_cordText__E                                              
0000148e  xdc_runtime_Text_isLoaded__C                                              
0000147c  xdc_runtime_Text_nameEmpty__C                                             
00001480  xdc_runtime_Text_nameStatic__C                                            
00001484  xdc_runtime_Text_nameUnknown__C                                           
1001c7e5  xdc_runtime_Text_ropeText__E                                              
1001c82d  xdc_runtime_Timestamp_SupportProxy_get32__E                               
0000cd51  xdc_runtime_Timestamp_SupportProxy_get32__E__mangled__                    
1001b9cd  xdc_runtime_Timestamp_SupportProxy_get64__E                               
1001b9cd  xdc_runtime_Timestamp_SupportProxy_get64__E__mangled__                    
1001c12b  xdc_runtime_Timestamp_SupportProxy_getFreq__E                             
1001c12b  xdc_runtime_Timestamp_SupportProxy_getFreq__E__mangled__                  
1001c82d  xdc_runtime_Timestamp_get32__E                                            
1001c82d  xdc_runtime_Timestamp_get32__E                                            
1001b9cd  xdc_runtime_Timestamp_get64__E                                            
1001b9cd  xdc_runtime_Timestamp_get64__E                                            
1001c12b  xdc_runtime_Timestamp_getFreq__E                                          
1001c12b  xdc_runtime_Timestamp_getFreq__E                                          


GLOBAL SYMBOLS: SORTED BY Symbol Address 

address   name                                                                      
-------   ----                                                                      
00000000  __ASM__                                                                   
00000000  ti_sysbios_family_arm_m3_Hwi_resetVectors                                 
00000001  xdc_rov_runtime_Mon__checksum                                             
00000001  xdc_rov_runtime_Mon__write                                                
00000001  xdc_runtime_Startup__EXECFXN__C                                           
00000001  xdc_runtime_Startup__RESETFXN__C                                          
0000003d  EasyLink_init                                                             
0000008c  __ISA__                                                                   
0000009e  __PLAT__                                                                  
000000c5  __TARG__                                                                  
000000ea  __TRDR__                                                                  
00000400  __STACK_SIZE                                                              
00000ec9  UARTCC26XX_read                                                           
00000fff  DisplayUartMin_clear                                                      
00001000  HEAPSIZE                                                                  
00001000  ti_sysbios_knl_Task_Object__PARAMS__C                                     
0000103c  ti_sysbios_knl_Mailbox_Object__PARAMS__C                                  
00001070  ti_sysbios_family_arm_m3_Hwi_Object__PARAMS__C                            
000010a0  ti_sysbios_hal_Hwi_Object__PARAMS__C                                      
000010cc  ti_sysbios_heaps_HeapMem_Module__FXNS__C                                  
000010f4  ti_sysbios_knl_Swi_Object__PARAMS__C                                      
0000111c  ti_sysbios_gates_GateHwi_Module__FXNS__C                                  
00001140  ti_sysbios_gates_GateMutex_Module__FXNS__C                                
00001164  ti_sysbios_heaps_HeapMem_Object__PARAMS__C                                
00001188  ti_sysbios_knl_Clock_Object__PARAMS__C                                    
000011ac  ti_sysbios_knl_Semaphore_Object__PARAMS__C                                
000011d0  ti_sysbios_family_arm_m3_Hwi_Object__DESC__C                              
000011f0  ti_sysbios_gates_GateHwi_Object__DESC__C                                  
00001210  ti_sysbios_gates_GateMutex_Object__DESC__C                                
00001230  ti_sysbios_hal_Hwi_Object__DESC__C                                        
00001250  ti_sysbios_heaps_HeapMem_Object__DESC__C                                  
00001270  ti_sysbios_knl_Clock_Object__DESC__C                                      
00001290  ti_sysbios_knl_Mailbox_Object__DESC__C                                    
000012b0  ti_sysbios_knl_Queue_Object__DESC__C                                      
000012d0  ti_sysbios_knl_Semaphore_Object__DESC__C                                  
000012f0  ti_sysbios_knl_Swi_Object__DESC__C                                        
00001310  ti_sysbios_knl_Task_Object__DESC__C                                       
00001330  ti_sysbios_gates_GateHwi_Object__PARAMS__C                                
00001348  ti_sysbios_gates_GateMutex_Object__PARAMS__C                              
00001360  ti_sysbios_knl_Queue_Object__PARAMS__C                                    
00001378  ti_sysbios_knl_Idle_funcList__C                                           
00001384  ti_sysbios_family_arm_cc26xx_Timer_startupNeeded__C                       
00001388  ti_sysbios_family_arm_m3_Hwi_E_alreadyDefined__C                          
0000138c  ti_sysbios_family_arm_m3_Hwi_E_hwiLimitExceeded__C                        
00001390  ti_sysbios_family_arm_m3_Hwi_NUM_INTERRUPTS__C                            
00001394  ti_sysbios_family_arm_m3_Hwi_Object__count__C                             
00001398  ti_sysbios_family_arm_m3_Hwi_Object__table__C                             
0000139c  ti_sysbios_family_arm_m3_Hwi_ccr__C                                       
000013a0  ti_sysbios_family_arm_m3_Hwi_excHandlerFunc__C                            
000013a4  ti_sysbios_family_arm_m3_Hwi_nullIsrFunc__C                               
000013a8  ti_sysbios_family_arm_m3_Hwi_numSparseInterrupts__C                       
000013ac  ti_sysbios_family_arm_m3_Hwi_priGroup__C                                  
000013b0  ti_sysbios_family_arm_m3_TaskSupport_stackAlignment__C                    
000013b4  ti_sysbios_heaps_HeapMem_E_memory__C                                      
000013b8  ti_sysbios_heaps_HeapMem_Module__gateObj__C                               
000013bc  ti_sysbios_heaps_HeapMem_Object__count__C                                 
000013c0  ti_sysbios_heaps_HeapMem_Object__table__C                                 
000013c4  ti_sysbios_heaps_HeapMem_reqAlign__C                                      
000013c8  ti_sysbios_knl_Clock_serviceMargin__C                                     
000013cc  ti_sysbios_knl_Mailbox_Object__count__C                                   
000013d0  ti_sysbios_knl_Mailbox_Object__table__C                                   
000013d4  ti_sysbios_knl_Mailbox_maxTypeAlign__C                                    
000013d8  ti_sysbios_knl_Queue_Object__count__C                                     
000013dc  ti_sysbios_knl_Queue_Object__table__C                                     
000013e0  ti_sysbios_knl_Swi_Object__count__C                                       
000013e4  ti_sysbios_knl_Swi_Object__table__C                                       
000013e8  ti_sysbios_knl_Swi_numPriorities__C                                       
000013ec  ti_sysbios_knl_Task_Object__count__C                                      
000013f0  ti_sysbios_knl_Task_Object__table__C                                      
000013f4  ti_sysbios_knl_Task_allBlockedFunc__C                                     
000013f8  ti_sysbios_knl_Task_defaultStackHeap__C                                   
000013fc  ti_sysbios_knl_Task_defaultStackSize__C                                   
00001400  ti_sysbios_knl_Task_numConstructedTasks__C                                
00001405  DisplayUartMin_clearLines                                                 
00001406  ti_sysbios_family_arm_cc26xx_Timer_Module__id__C                          
00001408  ti_sysbios_family_arm_cc26xx_TimestampProvider_useClockTimer__C           
0000140a  ti_sysbios_family_arm_m3_Hwi_Module__id__C                                
0000140c  ti_sysbios_gates_GateHwi_Module__id__C                                    
0000140e  ti_sysbios_gates_GateMutex_Module__id__C                                  
00001410  ti_sysbios_heaps_HeapMem_Module__id__C                                    
00001412  ti_sysbios_knl_Task_initStackFlag__C                                      
00001414  ti_sysbios_knl_Clock_tickMode__C                                          
00001418  xdc_runtime_Startup_firstFxns__C                                          
00001420  xdc_runtime_Startup_lastFxns__C                                           
00001428  xdc_runtime_Assert_E_assertFailed__C                                      
0000142c  xdc_runtime_Error_E_memory__C                                             
00001430  xdc_runtime_Error_policyFxn__C                                            
00001434  xdc_runtime_IGateProvider_Interface__BASE__C                              
00001438  xdc_runtime_IHeap_Interface__BASE__C                                      
0000143c  xdc_runtime_IModule_Interface__BASE__C                                    
00001440  xdc_runtime_Main_Module__diagsEnabled__C                                  
00001444  xdc_runtime_Main_Module__diagsIncluded__C                                 
00001448  xdc_runtime_Main_Module__diagsMask__C                                     
0000144c  xdc_runtime_Memory_defaultHeapInstance__C                                 
00001450  xdc_runtime_Startup_execImpl__C                                           
00001454  xdc_runtime_Startup_maxPasses__C                                          
00001458  xdc_runtime_Startup_sfxnRts__C                                            
0000145c  xdc_runtime_Startup_sfxnTab__C                                            
00001460  xdc_runtime_Startup_startModsFxn__C                                       
00001464  xdc_runtime_SysCallback_abortFxn__C                                       
00001468  xdc_runtime_SysCallback_exitFxn__C                                        
0000146c  xdc_runtime_System_abortFxn__C                                            
00001470  xdc_runtime_System_exitFxn__C                                             
00001474  xdc_runtime_System_maxAtexitHandlers__C                                   
00001478  xdc_runtime_Text_charTab__C                                               
0000147c  xdc_runtime_Text_nameEmpty__C                                             
00001480  xdc_runtime_Text_nameStatic__C                                            
00001484  xdc_runtime_Text_nameUnknown__C                                           
00001488  xdc_runtime_Main_Module__id__C                                            
0000148a  xdc_runtime_Memory_Module__id__C                                          
0000148c  xdc_runtime_Text_charCnt__C                                               
0000148e  xdc_runtime_Text_isLoaded__C                                              
00001490  xdc_runtime_Error_policy__C                                               
00001494  ti_sysbios_rom_ROM_AONRTCChannelEnable                                    
00001498  ti_sysbios_rom_ROM_AONRTCCompareValueSet                                  
0000149c  ti_sysbios_rom_ROM_AONRTCCurrentCompareValueGet                           
000014a0  ti_sysbios_rom_ROM_AONRTCEventClear                                       
000014a4  ti_sysbios_rom_ROM_ti_sysbios_family_arm_cc26xx_Timer_getCount64__E       
000014a8  ti_sysbios_rom_ROM_ti_sysbios_family_arm_cc26xx_Timer_getCurrentTick__E   
000014ac  ti_sysbios_rom_ROM_ti_sysbios_family_arm_cc26xx_Timer_getMaxTicks__E      
000014b0  ti_sysbios_rom_ROM_ti_sysbios_family_arm_cc26xx_Timer_initDevice__I       
000014b4  ti_sysbios_rom_ROM_ti_sysbios_family_arm_cc26xx_Timer_setNextTick__E      
000014b8  ti_sysbios_rom_ROM_ti_sysbios_family_arm_cc26xx_Timer_setThreshold__I     
000014bc  ti_sysbios_rom_ROM_ti_sysbios_family_arm_cc26xx_Timer_start__E            
000014c0  ti_sysbios_rom_ROM_ti_sysbios_family_arm_cc26xx_TimestampProvider_get32__E
000014c4  ti_sysbios_rom_ROM_xdc_runtime_Startup_getState__I                        
000014c8  ti_sysbios_rom_ROM_xdc_runtime_System_SupportProxy_abort__E               
000014cc  ti_sysbios_rom_ROM_xdc_runtime_System_SupportProxy_exit__E                
000014d0  ti_sysbios_gates_GateMutex_Instance_State_sem__O                          
000014d4  ti_sysbios_knl_Clock_Module_State_clockQ__O                               
000014d8  ti_sysbios_knl_Mailbox_Instance_State_dataQue__O                          
000014dc  ti_sysbios_knl_Mailbox_Instance_State_dataSem__O                          
000014e0  ti_sysbios_knl_Mailbox_Instance_State_freeQue__O                          
000014e4  ti_sysbios_knl_Mailbox_Instance_State_freeSem__O                          
000014e8  ti_sysbios_knl_Semaphore_Instance_State_pendQ__O                          
000014ec  ti_sysbios_knl_Task_Module_State_inactiveQ__O                             
000014f1  xdc_runtime_System_doPrint__I                                             
00001811  PowerCC26XX_auxISR                                                        
00001b1d  RF_scheduleCmd                                                            
00001ff9  NOROM_SysCtrlSetRechargeBeforePowerDown                                   
00002231  SPICC26XXDMA_transfer                                                     
000028d1  Power_sleep                                                               
00002af5  EasyLink_transmit                                                         
00002cfd  exp2                                                                      
00002cfd  exp2l                                                                     
00002ef9  RF_open                                                                   
000030d1  EasyLink_receiveAsync                                                     
00003295  mainThread                                                                
00003455  __aeabi_dsub                                                              
0000345f  __aeabi_dadd                                                              
0000360b  DisplayUartMin_init                                                       
000037c1  PIN_init                                                                  
00003971  SensorBmp280_convert                                                      
00003b05  PowerCC26XX_doCalibrate                                                   
00003e15  xdc_runtime_System_printfExtend__I                                        
00003f91  sqrt                                                                      
00003f91  sqrtl                                                                     
00004101  UARTCC26XX_open                                                           
00004511  I2CCC26XX_open                                                            
0000465d  UARTCC26XX_hwiIntFxn                                                      
000047a5  __aeabi_ddiv                                                              
00004a11  NOROM_SetupAfterColdResetWakeupFromShutDownCfg3                           
00005221  SPICC26XXDMA_open                                                         
00005455  Power_init                                                                
00005679  RF_close                                                                  
00005895  scifInit                                                                  
00005995  __aeabi_dmul                                                              
00005a91  __aeabi_fsub                                                              
00005a95  __aeabi_fadd                                                              
00005b8b  _nop                                                                      
00005b8d  EasyLink_enableRxAddrFilter                                               
00005c7d  NOROM_SetupAfterColdResetWakeupFromShutDownCfg2                           
00005d6d  pthread_create                                                            
00005e59  EasyLink_setCtrl                                                          
00006029  ti_sysbios_knl_Event_pend__E                                              
00006111  PowerCC26XX_standbyPolicy                                                 
000061f5  SPICC26XXDMA_transferCancel                                               
000062d9  UARTCC26XX_write                                                          
0000649d  countSteps                                                                
00006575  I2CCC26XX_transfer                                                        
0000664d  NOROM_RFCRfTrimRead                                                       
00006721  RF_pendCmd                                                                
000067f5  NOROM_RFCRTrim                                                            
00006a55  RF_control                                                                
00006bdd  Power_releaseDependency                                                   
00006c99  RF_postCmd                                                                
00006d51  Power_setDependency                                                       
00006e05  NodeRadioTask_init                                                        
00007015  NOROM_SetupTrimDevice                                                     
00007015  ti_sysbios_family_arm_cc26xx_Boot_trimDevice                              
00007165  NOROM_SetupAfterColdResetWakeupFromShutDownCfg1                           
000073f5  NodeTask_init                                                             
00007495  PIN_open                                                                  
000075d5  SensorI2C_select                                                          
00007675  __TI_auto_init                                                            
00007715  ti_sysbios_knl_Task_setPri__E                                             
00007851  __aeabi_memcpy                                                            
00007851  __aeabi_memcpy4                                                           
00007851  __aeabi_memcpy8                                                           
00007851  memcpy                                                                    
00007be5  ti_sysbios_knl_Clock_workFuncDynamic__E                                   
00007c7d  __aeabi_uldivmod                                                          
00007d13  __aeabi_fdiv                                                              
00007da5  I2CCC26XX_cancel                                                          
00007ec5  SPICC26XXDMA_control                                                      
00007f55  SensorMpu9250_reset                                                       
00007fe5  ti_sysbios_family_arm_cc26xx_Timer_start__E                               
00008075  UARTCC26XX_writeCancel                                                    
0000821d  scifInitIo                                                                
000082a9  _pthread_removeThreadKeys                                                 
000083b9  __aeabi_cdcmpeq                                                           
000083b9  __aeabi_cdcmple                                                           
0000843f  __aeabi_cdrcmple                                                          
000084c5  CC1350STK_sendExtFlashByte                                                
000085cd  UARTCC26XX_close                                                          
000087cd  SensorHdc1000_read                                                        
00008849  main                                                                      
000088c5  __aeabi_fmul                                                              
0000893f  __aeabi_memclr                                                            
0000893f  __aeabi_memclr4                                                           
0000893f  __aeabi_memclr8                                                           
00008941  __aeabi_memset                                                            
00008941  __aeabi_memset4                                                           
00008941  __aeabi_memset8                                                           
00008947  memset                                                                    
000089b9  SensorHdc1000_convert                                                     
00008a31  ti_sysbios_heaps_HeapMem_allocUnprotected__E                              
00008aa9  NOROM_SetupSetVddrLevel                                                   
00008b1d  RF_yield                                                                  
00008b91  SensorMpu9250_test                                                        
00008c79  SensorOpt3001_read                                                        
00008d5d  SensorI2C_open                                                            
00008dcd  scifGetTaskStruct                                                         
00008e3d  ti_sysbios_knl_Event_post__E                                              
00008ead  __aeabi_d2f                                                               
00008f1b  __aeabi_idiv0                                                             
00008f1b  __aeabi_ldiv0                                                             
00008f1d  xdc_runtime_System_formatNum__I                                           
00008f8b  ti_sysbios_BIOS_linkedWithIncorrectBootLibrary__E                         
00008f8d  PowerCC26XX_initiateCalibration                                           
00009065  SensorMpu9250_accSetRange                                                 
00009139  NOROM_SetupGetTrimForAmpcompCtrl                                          
000091a1  NOROM_SetupGetTrimForAnabypassValue1                                      
00009209  NOROM_SysCtrlAdjustRechargeAfterPowerDown                                 
00009271  NOROM_SysCtrl_DCDC_VoltageConditionalControl                              
000092d9  PIN_add                                                                   
00009341  __TI_decompress_lzss                                                      
00009479  ExtFlash_open                                                             
000094dd  NOROM_OSCHF_AttemptToSwitchToXosc                                         
00009541  NodeRadioTask_sendAdcData                                                 
0000966d  SensorI2C_writeReg                                                        
00009735  NOROM_OSCClockSourceSet                                                   
00009795  PowerCC26XX_calibrate                                                     
000097f5  RF_getCurrentTime                                                         
00009855  SensorOpt3001_convert                                                     
000098b5  SensorTmp007_enable                                                       
00009915  UARTCC26XX_control                                                        
00009975  __aeabi_cfrcmple                                                          
00009a35  UARTCC26XX_swiIntFxn                                                      
00009a93  ti_sysbios_BIOS_nullFunc__I                                               
00009a95  Display_doOpen                                                            
00009af1  I2CCC26XX_close                                                           
00009b4d  PowerCC26XX_RCOSC_clockFunc                                               
00009c61  UDMACC26XX_open                                                           
00009d19  ti_sysbios_heaps_HeapMem_initPrimary__I                                   
00009d75  xdc_runtime_Startup_getState__I                                           
00009dd1  SensorBmp280_read                                                         
00009e2b  createTxAdvFromTx                                                         
00009e85  PIN_remove                                                                
00009f8d  SensorUtil_convertToLe                                                    
00009fe5  pthread_exit                                                              
0000a03d  scifReinitIo                                                              
0000a095  scifUninitIo                                                              
0000a0ed  ti_sysbios_heaps_HeapMem_alloc__E                                         
0000a199  SceAdc_init                                                               
0000a1ed  SensorI2C_writeRead                                                       
0000a241  SPICC26XXDMA_close                                                        
0000a293  ti_sysbios_knl_Clock_triggerFunc__I                                       
0000a295  ClockP_construct                                                          
0000a2e5  NOROM_SetupSetCacheModeAccordingToCcfgSetting                             
0000a4c5  CC1350STK_wakeUpExtFlash                                                  
0000a5a9  SensorI2C_read                                                            
0000a5f5  SensorI2C_write                                                           
0000a68d  copy_in                                                                   
0000a725  DisplayUartMin_open                                                       
0000a76f  UARTCC26XX_readCancel                                                     
0000a801  PIN_setOutputEnable                                                       
0000a849  SensorMpu9250_enable                                                      
0000a891  __aeabi_d2iz                                                              
0000a921  DisplayUartMin_vprintf                                                    
0000a967  SensorMpu9250_accRead                                                     
0000a9ad  RingBuf_put                                                               
0000aa35  SensorBmp280_init                                                         
0000aa79  ResetISR                                                                  
0000aa79  _c_int00                                                                  
0000aabd  __aeabi_d2uiz                                                             
0000ab01  scifStartRtcTicks                                                         
0000ab45  CC1350STK_shutDownExtFlash                                                
0000ab85  I2C_init                                                                  
0000abc5  I2C_open                                                                  
0000ac05  NOROM_ChipInfo_GetHwRevision                                              
0000ac45  PINCC26XX_getConfig                                                       
0000acc5  SPI_init                                                                  
0000ad05  SPI_open                                                                  
0000ad45  UART_init                                                                 
0000ad85  UART_open                                                                 
0000ae05  __aeabi_uidiv                                                             
0000ae05  __aeabi_uidivmod                                                          
0000ae45  scifStartRtcTicksNow                                                      
0000ae85  ti_sysbios_family_arm_cc26xx_Timer_setThreshold__I                        
0000aec5  HwiP_construct                                                            
0000af03  RingBuf_get                                                               
0000af41  NOROM_OSC_HPOSCRelativeFrequencyOffsetGet                                 
0000af7d  NOROM_RFCSynthPowerDown                                                   
0000afb9  PowerCC26XX_isStableXOSC_HF                                               
0000b06d  SwiP_construct                                                            
0000b0e5  ti_sysbios_family_arm_m3_Hwi_construct2__E                                
0000b121  ExtFlash_close                                                            
0000b159  PIN_setConfig                                                             
0000b191  PIN_setInterrupt                                                          
0000b1c9  PIN_setOutputValue                                                        
0000b239  RF_powerConstraintRelease                                                 
0000b271  SensorMpu9250_init                                                        
0000b2a9  SensorOpt3001_enable                                                      
0000b389  __aeabi_f2d                                                               
0000b3c1  __aeabi_f2iz                                                              
0000b431  SensorBmp280_enable                                                       
0000b467  UDMACC26XX_close                                                          
0000b49d  ti_sysbios_family_arm_cc26xx_Timer_setNextTick__E                         
0000b4d3  xdc_runtime_SysCallback_defaultAbort                                      
0000b4d5  NOROM_OSCHF_SwitchToRcOscTurnOffXosc                                      
0000b509  Power_releaseConstraint                                                   
0000b53d  SensorHdc1000_init                                                        
0000b571  buttonCallback                                                            
0000b5d9  rand                                                                      
0000b60d  scifAckAlertEvents                                                        
0000b641  scifOsalInit                                                              
0000b6a9  ti_sysbios_family_arm_cc26xx_Timer_initDevice__I                          
0000b6dd  ti_sysbios_knl_Swi_setPri__E                                              
0000b711  usleep                                                                    
0000b777  xdc_runtime_SysCallback_defaultExit                                       
0000b779  NOROM_ChipInfo_GetChipType                                                
0000b7a9  NOROM_SetupGetTrimForRadcExtCfg                                           
0000b7d9  NOROM_SetupSetAonRtcSubSecInc                                             
0000b809  PINCC26XX_setMux                                                          
0000b839  Power_setConstraint                                                       
0000b869  SensorHdc1000_start                                                       
0000b899  SensorMpu9250_powerOn                                                     
0000b959  ti_sysbios_BIOS_atExitFunc__I                                             
0000b989  ti_sysbios_BIOS_startFunc__I                                              
0000b9b9  ti_sysbios_family_arm_cc26xx_Timer_getCurrentTick__E                      
0000ba45  __aeabi_i2d                                                               
0000ba73  xdc_runtime_SysCallback_defaultPutch                                      
0000ba75  NOROM_DDI32RegWrite                                                       
0000baa1  NOROM_OSCClockSourceGet                                                   
0000bacd  NOROM_RFCCpePatchReset                                                    
0000bb51  SemaphoreP_constructBinary                                                
0000bb7d  SemaphoreP_createBinary                                                   
0000bc59  pthread_setcancelstate                                                    
0000bc85  ti_sysbios_knl_Clock_getTicksUntilInterrupt__E                            
0000bcb1  ti_sysbios_knl_Event_construct                                            
0000bcdd  ti_sysbios_knl_Event_pendTimeout__I                                       
0000bd09  Display_doPrintf                                                          
0000bd33  ti_sysbios_knl_Clock_getTimeout__E                                        
0000bd5d  xdc_runtime_System_putchar__I                                             
0000bd89  Display_doInit                                                            
0000bdb1  NOROM_AONBatMonTemperatureGetDegC                                         
0000bdd9  NOROM_RFCDoorbellSendTo                                                   
0000be01  NOROM_RFCOverrideSearch                                                   
0000be29  Power_registerNotify                                                      
0000be51  RF_runCmd                                                                 
0000bea1  SafeHapiVoid                                                              
0000bec9  List_remove                                                               
0000bf7d  SceAdc_setReportInterval                                                  
0000bfc5  _pthread_cleanupFxn                                                       
0000c00d  pthread_attr_init                                                         
0000c031  __aeabi_ui2f                                                              
0000c055  ti_sysbios_BIOS_registerRTSLock__I                                        
0000c079  ti_sysbios_BIOS_removeRTSLock__I                                          
0000c09d  ti_sysbios_family_arm_cc26xx_Timer_getMaxTicks__E                         
0000c0c1  List_get                                                                  
0000c0e3  List_insert                                                               
0000c105  List_put                                                                  
0000c127  List_putHead                                                              
0000c149  NOROM_RFCAdi3VcoLdoVoltageMode                                            
0000c169  NOROM_SetupGetTrimForXoscHfCtl                                            
0000c189  Power_unregisterNotify                                                    
0000c229  __aeabi_ui2d                                                              
0000c289  ti_sysbios_BIOS_rtsLock__I                                                
0000c2a9  ti_sysbios_family_arm_cc26xx_Timer_dynamicStub__E                         
0000c2c9  ti_sysbios_knl_Clock_stop__E                                              
0000c2e9  ti_sysbios_knl_Event_checkEvents__I                                       
0000c309  xdc_runtime_Error_policyMin__E                                            
0000c329  PIN_close                                                                 
0000c347  Power_getTransitionLatency                                                
0000c3a1  CC1350STK_initGeneral                                                     
0000c3bd  NOROM_ChipInfo_GetChipFamily                                              
0000c3d9  NOROM_SetupGetTrimForAmpcompTh2                                           
0000c3f5  NOROM_SetupGetTrimForRcOscLfRtuneCtuneTrim                                
0000c449  RF_powerConstraintSet                                                     
0000c465  SensorI2C_readReg                                                         
0000c50d  ti_sysbios_family_arm_m3_Hwi_clearInterrupt__E                            
0000c50d  ti_sysbios_hal_Hwi_HwiProxy_clearInterrupt__E                             
0000c50d  ti_sysbios_hal_Hwi_clearInterrupt__E                                      
0000c529  ti_sysbios_knl_Swi_construct2__E                                          
0000c545  SensorMpu9250_powerIsOn                                                   
0000c591  NOROM_AONRTCCurrentCompareValueGet                                        
0000c5a9  NOROM_ChipInfo_GetPackageType                                             
0000c5c1  NOROM_OSCHF_TurnOnXosc                                                    
0000c5d9  NOROM_RFCCpeIntGetAndClear                                                
0000c5f1  NOROM_SetupGetTrimForAdcShModeEn                                          
0000c609  NOROM_SetupGetTrimForAdcShVbufEn                                          
0000c621  NOROM_SetupGetTrimForAmpcompTh1                                           
0000c639  NOROM_SetupGetTrimForDblrLoopFilterResetVoltage                           
0000c651  NOROM_SetupGetTrimForRcOscLfIBiasTrim                                     
0000c669  NOROM_SetupGetTrimForXoscLfRegulatorAndCmirrwrRatio                       
0000c681  PIN_getConfig                                                             
0000c699  PowerCC26XX_schedulerDisable                                              
0000c6b1  PowerCC26XX_schedulerRestore                                              
0000c6c9  Power_idleFunc                                                            
0000c711  UART_Params_init                                                          
0000c729  _args_main                                                                
0000c741  adcCallback                                                               
0000c759  __aeabi_lmul                                                              
0000c771  scifClearAlertIntSource                                                   
0000c789  ti_sysbios_BIOS_rtsUnlock__I                                              
0000c7a1  ti_sysbios_knl_Swi_or__E                                                  
0000c7b9  ti_sysbios_rts_ti_ReentSupport_getReent__E                                
0000c7b9  ti_sysbios_rts_ti_ReentSupport_getReent__F                                
0000c7d1  xdc_runtime_Error_init__E                                                 
0000c7ff  DisplayUartMin_close                                                      
0000c815  NOROM_ThisLibraryIsFor_CC13x0_HwRev20AndLater_HaltIfViolated              
0000c841  _pthread_cleanup_pop                                                      
0000c857  ti_sysbios_BIOS_exitFunc__I                                               
0000c95d  EasyLink_Params_init                                                      
0000c971  List_clearList                                                            
0000c985  NOROM_AONRTCCurrent64BitValueGet                                          
0000c999  PIN_getInputValue                                                         
0000c9ad  PIN_getOutputValue                                                        
0000c9c1  RF_Params_init                                                            
0000ca11  SPI_Params_init                                                           
0000ca25  SceAdc_registerAdcCallback                                                
0000ca39  SensorI2C_deselect                                                        
0000ca9d  pthread_attr_setschedparam                                                
0000cab1  scifOsalRegisterCtrlReadyCallback                                         
0000cac5  scifOsalRegisterTaskAlertCallback                                         
0000cad9  strlen                                                                    
0000caed  ti_sysbios_knl_Clock_doTick__I                                            
0000cb01  ti_sysbios_knl_Event_Instance_init__E                                     
0000cb15  RingBuf_construct                                                         
0000cb27  SemaphoreP_pend                                                           
0000cb4b  scifStartTasksNbl                                                         
0000cb6f  xdc_runtime_Startup_exec__I                                               
0000cb81  ClockP_isActive                                                           
0000cb91  HwiP_Params_init                                                          
0000cba1  I2C_Params_init                                                           
0000cbb1  NOROM_RFCHwIntGetAndClear                                                 
0000cbc1  NOROM_RFCRfTrimSet                                                        
0000cbd1  NOROM_SetupGetTrimForXoscHfFastStart                                      
0000cbe1  NOROM_SetupGetTrimForXoscHfIbiastherm                                     
0000cbf1  PINCC26XX_getPinCount                                                     
0000cc21  SwiP_Params_init                                                          
0000cc71  fastReportTimeoutCallback                                                 
0000cc91  ti_sysbios_family_arm_m3_Hwi_post__E                                      
0000cc91  ti_sysbios_hal_Hwi_HwiProxy_post__E                                       
0000cc91  ti_sysbios_hal_Hwi_post__E                                                
0000ccb1  xdc_runtime_SysCallback_putch__E                                          
0000ccb1  xdc_runtime_System_SupportProxy_putch__E                                  
0000ccc1  xdc_runtime_SysCallback_ready__E                                          
0000ccc1  xdc_runtime_System_SupportProxy_ready__E                                  
0000ccd1  xdc_runtime_System_vsnprintf__E                                           
0000cce1  NOROM_VIMSModeGet                                                         
0000ccfd  SPICC26XXDMA_init                                                         
0000cd0b  __TI_decompress_none                                                      
0000cd35  pthread_attr_setdetachstate                                               
0000cd51  ti_sysbios_family_arm_cc26xx_TimestampProvider_get32__E                   
0000cd51  xdc_runtime_Timestamp_SupportProxy_get32__E__mangled__                    
0000cd5f  NOROM_CPUcpsid                                                            
0000cd6b  NOROM_CPUcpsie                                                            
0000cd77  NOROM_OSC_HPOSCRelativeFrequencyOffsetToRFCoreFormatConvert               
0000cd83  PIN_registerIntCb                                                         
0000cd91  Power_getConstraintMask                                                   
0000cd9d  Power_getDependencyCount                                                  
0000cda9  RF_powerConstraintGet                                                     
0000cdb5  SemaphoreP_delete                                                         
0000cdc1  SensorOpt3001_init                                                        
0000cdf1  _register_lock                                                            
0000cdfd  _register_unlock                                                          
0000ce09  __TI_zero_init                                                            
0000ce15  nodeRadioTask_getNodeAddr                                                 
0000ce2d  pthread_self                                                              
0000ce39  scifGetAlertEvents                                                        
0000ce45  scifOsalLeaveCriticalSection                                              
0000ce5d  ti_sysbios_BIOS_getThreadType__E                                          
0000ce75  ti_sysbios_knl_Event_Params__init__S                                      
0000cebd  ti_sysbios_knl_Swi_getTrigger__E                                          
0000cec9  xdc_runtime_Startup_rtsDone__E                                            
0000ced5  ClockP_Params_init                                                        
0000cedf  I2CCC26XX_init                                                            
0000cee9  I2C_close                                                                 
0000cef3  I2C_transfer                                                              
0000cefd  SPI_close                                                                 
0000cf07  SPI_transfer                                                              
0000cf11  SceAdc_start                                                              
0000cf1b  SensorTmp007_init                                                         
0000cf25  UART_close                                                                
0000cf2f  UART_control                                                              
0000cf39  UART_write                                                                
0000cf43  UDMACC26XX_hwiIntFxn                                                      
0000cf75  scifOsalDisableTaskAlertInt                                               
0000cf7f  scifOsalEnableTaskAlertInt                                                
0000cf89  ti_sysbios_rts_ti_ReentSupport_getTlsAddr__I                              
0000cf93  Board_init                                                                
0000cf9b  Board_initHook                                                            
0000cfb3  UARTCC26XX_init                                                           
0000cfe3  scifOsalEnterCriticalSection                                              
0000cff3  DisplayUartMin_control                                                    
0000cff9  DisplayUartMin_getType                                                    
0000cfff  Display_doParamsInit                                                      
0000d005  I2CCC26XX_control                                                         
0000d00b  NOROM_CPUdelay                                                            
0000d017  UARTCC26XX_readPolling                                                    
0000d01d  UARTCC26XX_writePolling                                                   
0000d023  pthread_attr_setstacksize                                                 
0000d029  ti_sysbios_family_arm_m3_Hwi_setFunc__E                                   
0000d02f  ClockP_destruct                                                           
0000d033  ClockP_getCpuFreq                                                         
0000d037  ClockP_getTimeout                                                         
0000d03b  ClockP_setTimeout                                                         
0000d03f  ClockP_start                                                              
0000d043  ClockP_stop                                                               
0000d047  HwiP_destruct                                                             
0000d04b  HwiP_disable                                                              
0000d04f  HwiP_disableInterrupt                                                     
0000d053  HwiP_enableInterrupt                                                      
0000d057  HwiP_post                                                                 
0000d05b  HwiP_setFunc                                                              
0000d05f  HwiP_setPriority                                                          
0000d063  NOROM_RFCOverrideUpdate                                                   
0000d067  PowerCC26XX_switchXOSC_HF                                                 
0000d06b  SemaphoreP_destruct                                                       
0000d06f  SemaphoreP_post                                                           
0000d073  SwiP_destruct                                                             
0000d077  SwiP_disable                                                              
0000d07b  SwiP_getTrigger                                                           
0000d07f  SwiP_or                                                                   
0000d083  SwiP_post                                                                 
0000d087  SwiP_setPriority                                                          
0000d08b  SystemP_vsnprintf                                                         
0000d08f  __aeabi_errno_addr                                                        
0000d097  ti_sysbios_family_arm_cc26xx_Timer_getCount64__E                          
0000d09b  ti_sysbios_knl_Clock_isActive__E                                          
0000d09f  ti_sysbios_knl_Queue_insert__E                                            
0000d0a3  ti_sysbios_knl_Task_getArg1__E                                            
0000d0a7  ti_sysbios_knl_Task_getEnv__E                                             
0000d0ab  xdc_runtime_Startup_reset__I                                              
0000d0af  xdc_runtime_SysCallback_defaultReady                                      
0001135c  BoardGpioInitTable                                                        
000113c0  resourceDB                                                                
00011498  spiCC26XXDMAHWAttrs                                                       
00011510  scifDriverSetup                                                           
00011540  UARTCC26XX_fxnTable                                                       
00011568  uartCC26XXHWAttrs                                                         
00011590  UART_defaultParams                                                        
000115b4  xdc_runtime_Startup_sfxnTab__A                                            
000115d8  DisplayUartMin_fxnTable                                                   
000115f8  SPI_defaultParams                                                         
00011618  ti_sysbios_knl_Event_Object__DESC__C                                      
00011654  I2CCC26XX_fxnTable                                                        
0001166c  PowerCC26XX_config                                                        
00011684  SPICC26XXDMA_fxnTable                                                     
0001169c  SPI_config                                                                
000116b4  i2cCC26xxHWAttrs                                                          
000116e4  ti_sysbios_knl_Event_Object__PARAMS__C                                    
00011710  displayUartHWAttrs                                                        
00011724  xdc_runtime_Startup_sfxnRts__A                                            
00011758  I2C_defaultParams                                                         
00011778  AESCCM_count                                                              
00011779  AESGCM_count                                                              
0001177a  AESCBC_count                                                              
0001177b  AESCTR_count                                                              
0001177c  AESECB_count                                                              
0001177d  AESCTRDRBG_count                                                          
0001177e  TRNG_count                                                                
0001177f  Display_count                                                             
00011780  I2C_count                                                                 
00011781  I2S_count                                                                 
00011782  NVS_count                                                                 
00011783  PWM_count                                                                 
00011784  SPI_count                                                                 
00011785  UART_count                                                                
00011786  Watchdog_count                                                            
00011788  Display_config                                                            
00011794  I2C_config                                                                
000117a0  RFCC26XX_hwAttrs                                                          
000117ac  UART_config                                                               
000117b8  xdc_runtime_Startup_firstFxns__A                                          
000117cc  PINCC26XX_hwAttrs                                                         
000117d4  UDMACC26XX_config                                                         
000117e4  ti_sysbios_knl_Idle_funcList__A                                           
000117ec  udmaHWAttrs                                                               
000117f8  ti_sysbios_family_arm_cc26xx_Timer_funcHookCH1__C                         
000117fc  ti_sysbios_family_arm_cc26xx_Timer_funcHookCH2__C                         
00011800  ti_sysbios_heaps_HeapMem_primaryHeapBaseAddr__C                           
00011804  ti_sysbios_heaps_HeapMem_primaryHeapEndAddr__C                            
00011808  ti_sysbios_knl_Clock_tickPeriod__C                                        
0001180c  ti_sysbios_knl_Clock_triggerClock__C                                      
00011810  ti_sysbios_knl_Event_Instance_State_pendQ__O                              
00011814  ti_sysbios_knl_Task_Object__heap__C                                       
00011818  xdc_runtime_SysCallback_putchFxn__C                                       
0001181c  xdc_runtime_SysCallback_readyFxn__C                                       
00011820  xdc_runtime_System_extendFxn__C                                           
00011824  Display_defaultParams                                                     
00011825  EasyLink_numSupportedPhys                                                 
00011826  xdc_runtime_Text_charTab__A                                               
00011828  __TI_static_base__                                                        
00011bf8  __TI_Handler_Table_Base                                                   
00011c04  __TI_Handler_Table_Limit                                                  
00011c60  __TI_CINIT_Base                                                           
00011ce0  __TI_CINIT_Limit                                                          
0001ffa8  __ccfg                                                                    
1001a001  ti_sysbios_knl_Semaphore_pend__E                                          
1001a0cd  ti_sysbios_knl_Mailbox_Instance_init__E                                   
1001a259  ti_sysbios_knl_Task_Instance_init__E                                      
1001a315  ti_sysbios_family_arm_m3_Hwi_postInit__I                                  
1001a3c5  ti_sysbios_family_arm_m3_Hwi_Instance_init__E                             
1001a465  ti_sysbios_family_arm_cc26xx_Timer_periodicStub__E                        
1001a4f9  ti_sysbios_knl_Task_Instance_finalize__E                                  
1001a58d  ti_sysbios_knl_Mailbox_post__E                                            
1001a611  ti_sysbios_knl_Task_postInit__I                                           
1001a695  ti_sysbios_family_arm_m3_Hwi_initNVIC__E                                  
1001a715  ti_sysbios_knl_Clock_startI__E                                            
1001a791  ti_sysbios_heaps_HeapMem_free__E                                          
1001a809  ti_sysbios_knl_Clock_walkQueueDynamic__E                                  
1001a881  ti_sysbios_knl_Clock_workFunc__E                                          
1001a8f9  ti_sysbios_knl_Mailbox_Instance_finalize__E                               
1001a969  ti_sysbios_knl_Mailbox_pend__E                                            
1001a9d9  ti_sysbios_knl_Task_sleep__E                                              
1001aa49  ti_sysbios_family_arm_m3_Hwi_dispatchC__I                                 
1001aab1  ti_sysbios_family_arm_m3_Hwi_Object__create__S                            
1001ab15  ti_sysbios_family_arm_m3_Hwi_create                                       
1001ab79  ti_sysbios_hal_Hwi_create                                                 
1001abdd  ti_sysbios_knl_Mailbox_create                                             
1001ac41  ti_sysbios_knl_Semaphore_post__E                                          
1001aca5  ti_sysbios_knl_Swi_Instance_init__E                                       
1001ad05  ti_sysbios_knl_Swi_create                                                 
1001ad61  ti_sysbios_knl_Swi_restoreHwi__E                                          
1001adbd  ti_sysbios_knl_Task_Module_startup__E                                     
1001ae19  ti_sysbios_knl_Task_create                                                
1001ae75  ti_sysbios_knl_Task_startCore__E                                          
1001aed1  ti_sysbios_family_arm_m3_Hwi_Instance_finalize__E                         
1001af29  ti_sysbios_family_arm_m3_Hwi_construct                                    
1001af81  ti_sysbios_knl_Mailbox_construct                                          
1001afd9  ti_sysbios_knl_Swi_run__I                                                 
1001b031  ti_sysbios_knl_Swi_schedule__I                                            
1001b085  ti_sysbios_knl_Swi_construct                                              
1001b0d5  ti_sysbios_knl_Swi_runLoop__I                                             
1001b125  ti_sysbios_knl_Task_construct                                             
1001b175  ti_sysbios_knl_Task_schedule__I                                           
1001b1c1  ti_sysbios_family_arm_m3_Hwi_Module_startup__E                            
1001b209  ti_sysbios_heaps_HeapMem_getStats__E                                      
1001b251  ti_sysbios_family_arm_m3_Hwi_disableInterrupt__E                          
1001b251  ti_sysbios_hal_Hwi_HwiProxy_disableInterrupt__E__mangled__                
1001b295  ti_sysbios_family_arm_m3_Hwi_enableInterrupt__E                           
1001b295  ti_sysbios_hal_Hwi_HwiProxy_enableInterrupt__E__mangled__                 
1001b2d9  ti_sysbios_knl_Mailbox_Module_startup__E                                  
1001b31d  ti_sysbios_knl_Swi_post__E                                                
1001b361  ti_sysbios_knl_Task_allBlockedFunction__I                                 
1001b3a5  ti_sysbios_knl_Task_yield__E                                              
1001b3e9  ti_sysbios_knl_Clock_create                                               
1001b425  ti_sysbios_knl_Task_exit__E                                               
1001b45f  ti_sysbios_gates_GateHwi_Instance_init__E                                 
1001b461  ti_sysbios_family_arm_m3_Hwi_getStackInfo__E                              
1001b461  ti_sysbios_hal_Hwi_HwiProxy_getStackInfo__E__mangled__                    
1001b499  ti_sysbios_family_arm_m3_TaskSupport_start__E                             
1001b499  ti_sysbios_knl_Task_SupportProxy_start__E__mangled__                      
1001b4d1  ti_sysbios_heaps_HeapMem_Instance_init__E                                 
1001b509  ti_sysbios_knl_Clock_Instance_init__E                                     
1001b541  ti_sysbios_heaps_HeapMem_init__I                                          
1001b575  ti_sysbios_knl_Clock_construct                                            
1001b5a9  ti_sysbios_knl_Semaphore_create                                           
1001b5dd  SwiP_restore                                                              
1001b5dd  ti_sysbios_knl_Swi_restore__E                                             
1001b611  ti_sysbios_knl_Task_blockI__E                                             
1001b645  ti_sysbios_gates_GateMutex_Object__create__S                              
1001b675  ti_sysbios_gates_GateMutex_create                                         
1001b6a5  ti_sysbios_gates_GateMutex_enter__E                                       
1001b6d5  ClockP_getSystemTicks                                                     
1001b6d5  ti_sysbios_knl_Clock_getTicks__E                                          
1001b705  ti_sysbios_knl_Semaphore_construct                                        
1001b735  ti_sysbios_knl_Task_processVitalTaskFlag__I                               
1001b765  ti_sysbios_family_arm_cc26xx_Timer_postInit__I                            
1001b791  ti_sysbios_family_arm_cc26xx_Timer_startup__E                             
1001b791  ti_sysbios_knl_Clock_TimerProxy_startup__E                                
1001b791  ti_sysbios_knl_Clock_TimerProxy_startup__E__mangled__                     
1001b7bd  ti_sysbios_family_arm_m3_Hwi_Object__get__S                               
1001b7e9  ti_sysbios_gates_GateMutex_construct                                      
1001b815  ti_sysbios_hal_Hwi_initStack                                              
1001b841  ti_sysbios_heaps_HeapMem_Object__create__S                                
1001b86d  ti_sysbios_heaps_HeapMem_Object__get__S                                   
1001b899  ti_sysbios_knl_Mailbox_Object__get__S                                     
1001b8c5  ti_sysbios_knl_Mailbox_postInit__I                                        
1001b8f1  ti_sysbios_knl_Queue_construct                                            
1001b91d  ti_sysbios_knl_Queue_create                                               
1001b949  ti_sysbios_knl_Semaphore_pendTimeout__I                                   
1001b975  ti_sysbios_knl_Swi_Object__get__S                                         
1001b9a1  ti_sysbios_knl_Task_unblockI__E                                           
1001b9cd  ti_sysbios_family_arm_cc26xx_TimestampProvider_get64__E                   
1001b9cd  xdc_runtime_Timestamp_SupportProxy_get64__E                               
1001b9cd  xdc_runtime_Timestamp_SupportProxy_get64__E__mangled__                    
1001b9cd  xdc_runtime_Timestamp_get64__E                                            
1001b9cd  xdc_runtime_Timestamp_get64__E                                            
1001b9f5  ti_sysbios_hal_Hwi_Instance_init__E                                       
1001ba1d  ti_sysbios_knl_Clock_addI__E                                              
1001ba45  ti_sysbios_knl_Task_restore__E                                            
1001ba6d  ti_sysbios_family_arm_cc26xx_Timer_Module_startup__E                      
1001ba91  ti_sysbios_gates_GateHwi_Object__create__S                                
1001bab5  ti_sysbios_BIOS_RtsGateProxy_Object__delete__S                            
1001bab5  ti_sysbios_gates_GateMutex_Object__delete__S                              
1001bab5  ti_sysbios_heaps_HeapMem_Module_GateProxy_Object__delete__S               
1001bad9  ti_sysbios_knl_Clock_Object__delete__S                                    
1001bafd  ti_sysbios_knl_Semaphore_Instance_init__E                                 
1001bb21  ti_sysbios_knl_Semaphore_Object__delete__S                                
1001bb45  ti_sysbios_family_arm_cc26xx_Timer_Module__startupDone__S                 
1001bb45  ti_sysbios_knl_Clock_TimerProxy_Module__startupDone__S__mangled__         
1001bb65  ti_sysbios_family_arm_cc26xx_TimestampProvider_Module_startup__E          
1001bb85  ti_sysbios_family_arm_m3_Hwi_Module__startupDone__S                       
1001bb85  ti_sysbios_hal_Hwi_HwiProxy_Module__startupDone__S__mangled__             
1001bba5  ti_sysbios_family_arm_m3_Hwi_Object__delete__S                            
1001bba5  ti_sysbios_hal_Hwi_HwiProxy_Object__delete__S                             
1001bbc5  ti_sysbios_family_arm_m3_Hwi_excHandler__I                                
1001bbe5  ti_sysbios_gates_GateHwi_Handle__label__S                                 
1001bbe5  xdc_runtime_Main_Module_GateProxy_Handle__label__S                        
1001bbe5  xdc_runtime_System_Module_GateProxy_Handle__label__S                      
1001bbe5  xdc_runtime_System_Module_GateProxy_Handle__label__S__mangled__           
1001bc05  ti_sysbios_gates_GateHwi_Object__delete__S                                
1001bc05  xdc_runtime_System_Module_GateProxy_Object__delete__S                     
1001bc25  ti_sysbios_BIOS_RtsGateProxy_Handle__label__S                             
1001bc25  ti_sysbios_BIOS_RtsGateProxy_Handle__label__S__mangled__                  
1001bc25  ti_sysbios_gates_GateMutex_Handle__label__S                               
1001bc25  ti_sysbios_heaps_HeapMem_Module_GateProxy_Handle__label__S                
1001bc25  ti_sysbios_heaps_HeapMem_Module_GateProxy_Handle__label__S__mangled__     
1001bc45  ti_sysbios_gates_GateMutex_Object__destruct__S                            
1001bc65  ti_sysbios_hal_Hwi_Object__delete__S                                      
1001bc85  ti_sysbios_heaps_HeapMem_Handle__label__S                                 
1001bc85  xdc_runtime_Memory_HeapProxy_Handle__label__S                             
1001bc85  xdc_runtime_Memory_HeapProxy_Handle__label__S__mangled__                  
1001bca5  ti_sysbios_heaps_HeapMem_Object__delete__S                                
1001bca5  xdc_runtime_Memory_HeapProxy_Object__delete__S                            
1001bcc5  ti_sysbios_knl_Clock_Module_startup__E                                    
1001bce5  ti_sysbios_knl_Clock_Object__destruct__S                                  
1001bd05  ti_sysbios_knl_Idle_run__E                                                
1001bd25  ti_sysbios_knl_Mailbox_Object__delete__S                                  
1001bd45  ti_sysbios_knl_Queue_Object__delete__S                                    
1001bd65  ti_sysbios_knl_Queue_Object__get__S                                       
1001bd85  ti_sysbios_knl_Semaphore_Object__destruct__S                              
1001bda5  ti_sysbios_knl_Swi_Object__delete__S                                      
1001bdc5  ti_sysbios_knl_Task_Object__delete__S                                     
1001bde5  ti_sysbios_knl_Task_Object__get__S                                        
1001be05  ti_sysbios_knl_Task_enter__I                                              
1001be25  ti_sysbios_knl_Task_restoreHwi__E                                         
1001be45  ti_sysbios_hal_Hwi_HwiProxy_create                                        
1001be63  ti_sysbios_knl_Clock_logTick__E                                           
1001be65  ti_sysbios_family_arm_m3_Hwi_Object__destruct__S                          
1001be81  ti_sysbios_family_arm_m3_Hwi_setPriority__E                               
1001be9d  ti_sysbios_gates_GateMutex_Instance_init__E                               
1001beb9  ti_sysbios_knl_Clock_scheduleNextTick__E                                  
1001bed5  ti_sysbios_knl_Mailbox_Object__destruct__S                                
1001bef1  ti_sysbios_knl_Queue_Object__destruct__S                                  
1001bf0d  ti_sysbios_knl_Queue_get__E                                               
1001bf29  ti_sysbios_knl_Queue_put__E                                               
1001bf45  ti_sysbios_knl_Swi_Object__destruct__S                                    
1001bf61  ti_sysbios_knl_Task_Object__destruct__S                                   
1001bf7d  ti_sysbios_knl_Task_sleepTimeout__I                                       
1001bf97  ti_sysbios_knl_Swi_Instance_finalize__E                                   
1001bf99  ti_sysbios_gates_GateMutex_leave__E                                       
1001bfb1  ti_sysbios_knl_Task_unblock__E                                            
1001bfc9  ti_sysbios_knl_Clock_Instance_finalize__E                                 
1001bfdf  ti_sysbios_knl_Clock_start__E                                             
1001bff5  ti_sysbios_BIOS_getCpuFreq__E                                             
1001c009  ti_sysbios_family_arm_m3_Hwi_switchFromBootStack__E                       
1001c009  ti_sysbios_hal_Hwi_HwiProxy_switchFromBootStack__E__mangled__             
1001c01d  ti_sysbios_hal_Hwi_Module_startup__E                                      
1001c031  ti_sysbios_BIOS_exit__E                                                   
1001c041  ti_sysbios_BIOS_setThreadType__E                                          
1001c051  ti_sysbios_BIOS_start__E                                                  
1001c061  ti_sysbios_family_arm_m3_Hwi_plug__E                                      
1001c071  ti_sysbios_gates_GateMutex_Instance_finalize__E                           
1001c081  ti_sysbios_hal_Hwi_HwiProxy_Object__create__S                             
1001c091  ti_sysbios_knl_Clock_TimerProxy_getCurrentTick__E                         
1001c0a1  ti_sysbios_knl_Clock_TimerProxy_getMaxTicks__E                            
1001c0b1  ti_sysbios_knl_Clock_TimerProxy_setNextTick__E                            
1001c0c1  ti_sysbios_knl_Semaphore_Instance_finalize__E                             
1001c0d1  ti_sysbios_knl_Swi_disable__E                                             
1001c0e1  ti_sysbios_knl_Swi_enabled__E                                             
1001c0f1  ti_sysbios_knl_Task_disable__E                                            
1001c101  ti_sysbios_heaps_HeapMem_restore__E                                       
1001c10f  ti_sysbios_knl_Queue_empty__E                                             
1001c11d  ti_sysbios_knl_Queue_remove__E                                            
1001c12b  ti_sysbios_family_arm_cc26xx_TimestampProvider_getFreq__E                 
1001c12b  xdc_runtime_Timestamp_SupportProxy_getFreq__E                             
1001c12b  xdc_runtime_Timestamp_SupportProxy_getFreq__E__mangled__                  
1001c12b  xdc_runtime_Timestamp_getFreq__E                                          
1001c12b  xdc_runtime_Timestamp_getFreq__E                                          
1001c139  ti_sysbios_family_arm_m3_Hwi_Params__init__S                              
1001c139  ti_sysbios_hal_Hwi_HwiProxy_Params__init__S                               
1001c139  ti_sysbios_hal_Hwi_HwiProxy_Params__init__S__mangled__                    
1001c145  ti_sysbios_family_arm_m3_Hwi_disableFxn__E                                
1001c151  ti_sysbios_family_arm_m3_Hwi_enableFxn__E                                 
1001c15d  ti_sysbios_family_arm_m3_TaskSupport_getStackAlignment__E                 
1001c15d  ti_sysbios_knl_Task_SupportProxy_getStackAlignment__E__mangled__          
1001c169  ti_sysbios_gates_GateHwi_enter__E                                         
1001c175  ti_sysbios_BIOS_RtsGateProxy_Params__init__S                              
1001c175  ti_sysbios_BIOS_RtsGateProxy_Params__init__S__mangled__                   
1001c175  ti_sysbios_gates_GateMutex_Params__init__S                                
1001c175  ti_sysbios_heaps_HeapMem_Module_GateProxy_Params__init__S                 
1001c175  ti_sysbios_heaps_HeapMem_Module_GateProxy_Params__init__S__mangled__      
1001c181  ti_sysbios_knl_Clock_Params__init__S                                      
1001c18d  ti_sysbios_knl_Clock_getTimerHandle__E                                    
1001c199  ti_sysbios_knl_Mailbox_Params__init__S                                    
1001c1a5  ti_sysbios_knl_Queue_dequeue__E                                           
1001c1b1  ti_sysbios_knl_Queue_enqueue__E                                           
1001c1bd  ti_sysbios_knl_Semaphore_Params__init__S                                  
1001c1c9  ti_sysbios_knl_Swi_Params__init__S                                        
1001c1d5  ti_sysbios_knl_Task_Params__init__S                                       
1001c1e1  ti_sysbios_knl_Task_self__E                                               
1001c1ed  ti_sysbios_hal_Hwi_Instance_finalize__E                                   
1001c1f7  ti_sysbios_family_arm_m3_Hwi_doSwiRestore__I                              
1001c1ff  ti_sysbios_family_arm_m3_Hwi_startup__E                                   
1001c1ff  ti_sysbios_hal_Hwi_HwiProxy_startup__E__mangled__                         
1001c207  ti_sysbios_knl_Idle_loop__E                                               
1001c20f  ti_sysbios_family_arm_m3_Hwi_doTaskRestore__I                             
1001c215  HwiP_restore                                                              
1001c215  ti_sysbios_family_arm_m3_Hwi_restoreFxn__E                                
1001c21b  ti_sysbios_gates_GateHwi_leave__E                                         
1001c227  ti_sysbios_knl_Queue_Instance_init__E                                     
1001c22d  ti_sysbios_knl_Queue_elemClear__E                                         
1001c233  ti_sysbios_knl_Swi_Module_startup__E                                      
1001c239  ti_sysbios_knl_Swi_startup__E                                             
1001c23f  ti_sysbios_knl_Task_enable__E                                             
1001c245  ti_sysbios_BIOS_RtsGateProxy_enter__E                                     
1001c249  ti_sysbios_BIOS_RtsGateProxy_leave__E                                     
1001c24d  ti_sysbios_family_arm_cc26xx_Timer_getExpiredTicks__E                     
1001c251  ti_sysbios_family_arm_cc26xx_Timer_getPeriod__E                           
1001c255  ti_sysbios_family_arm_cc26xx_Timer_setPeriod__E                           
1001c259  ti_sysbios_family_arm_m3_Hwi_delete                                       
1001c25d  ti_sysbios_family_arm_m3_Hwi_destruct                                     
1001c261  ti_sysbios_family_arm_m3_TaskSupport_Module__startupDone__S               
1001c261  ti_sysbios_knl_Task_SupportProxy_Module__startupDone__S__mangled__        
1001c265  ti_sysbios_gates_GateHwi_query__E                                         
1001c265  xdc_runtime_Main_Module_GateProxy_query__E                                
1001c265  xdc_runtime_System_Module_GateProxy_query__E                              
1001c265  xdc_runtime_System_Module_GateProxy_query__E__mangled__                   
1001c269  ti_sysbios_gates_GateMutex_delete                                         
1001c26d  ti_sysbios_gates_GateMutex_destruct                                       
1001c271  ti_sysbios_BIOS_RtsGateProxy_query__E                                     
1001c271  ti_sysbios_BIOS_RtsGateProxy_query__E__mangled__                          
1001c271  ti_sysbios_gates_GateMutex_query__E                                       
1001c271  ti_sysbios_heaps_HeapMem_Module_GateProxy_query__E                        
1001c271  ti_sysbios_heaps_HeapMem_Module_GateProxy_query__E__mangled__             
1001c275  ti_sysbios_hal_Hwi_HwiProxy_Module__startupDone__S                        
1001c279  ti_sysbios_hal_Hwi_HwiProxy_delete                                        
1001c27d  ti_sysbios_hal_Hwi_HwiProxy_disableInterrupt__E                           
1001c27d  ti_sysbios_hal_Hwi_disableInterrupt__E                                    
1001c27d  ti_sysbios_hal_Hwi_disableInterrupt__E                                    
1001c281  ti_sysbios_hal_Hwi_HwiProxy_enableInterrupt__E                            
1001c281  ti_sysbios_hal_Hwi_enableInterrupt__E                                     
1001c281  ti_sysbios_hal_Hwi_enableInterrupt__E                                     
1001c285  ti_sysbios_hal_Hwi_HwiProxy_getStackInfo__E                               
1001c285  ti_sysbios_hal_Hwi_getStackInfo__E                                        
1001c285  ti_sysbios_hal_Hwi_getStackInfo__E                                        
1001c289  ti_sysbios_hal_Hwi_HwiProxy_startup__E                                    
1001c289  ti_sysbios_hal_Hwi_startup__E                                             
1001c289  ti_sysbios_hal_Hwi_startup__E                                             
1001c28d  ti_sysbios_hal_Hwi_HwiProxy_switchFromBootStack__E                        
1001c291  ti_sysbios_hal_Hwi_delete                                                 
1001c295  ti_sysbios_hal_Hwi_switchFromBootStack__E                                 
1001c295  ti_sysbios_hal_Hwi_switchFromBootStack__E                                 
1001c299  ti_sysbios_heaps_HeapMem_Module_GateProxy_enter__E                        
1001c29d  ti_sysbios_heaps_HeapMem_Module_GateProxy_leave__E                        
1001c2a1  ti_sysbios_heaps_HeapMem_isBlocking__E                                    
1001c2a5  ti_sysbios_knl_Clock_TimerProxy_Module__startupDone__S                    
1001c2a9  ti_sysbios_knl_Clock_TimerProxy_getExpiredTicks__E                        
1001c2ad  ti_sysbios_knl_Clock_TimerProxy_getPeriod__E                              
1001c2b1  ti_sysbios_knl_Clock_delete                                               
1001c2b5  ti_sysbios_knl_Clock_destruct                                             
1001c2b9  ti_sysbios_knl_Clock_removeI__E                                           
1001c2bd  ti_sysbios_knl_Clock_setTimeout__E                                        
1001c2c1  ti_sysbios_knl_Mailbox_delete                                             
1001c2c5  ti_sysbios_knl_Mailbox_destruct                                           
1001c2c9  ti_sysbios_knl_Queue_delete                                               
1001c2cd  ti_sysbios_knl_Queue_destruct                                             
1001c2d1  ti_sysbios_knl_Queue_head__E                                              
1001c2d5  ti_sysbios_knl_Queue_next__E                                              
1001c2d9  ti_sysbios_knl_Semaphore_delete                                           
1001c2dd  ti_sysbios_knl_Semaphore_destruct                                         
1001c2e1  ti_sysbios_knl_Swi_delete                                                 
1001c2e5  ti_sysbios_knl_Swi_destruct                                               
1001c2e9  ti_sysbios_knl_Swi_postInit__I                                            
1001c2ed  ti_sysbios_knl_Task_SupportProxy_Module__startupDone__S                   
1001c2f1  ti_sysbios_knl_Task_SupportProxy_getStackAlignment__E                     
1001c2f5  ti_sysbios_knl_Task_SupportProxy_start__E                                 
1001c2f9  ti_sysbios_knl_Task_SupportProxy_swap__E                                  
1001c2fd  ti_sysbios_knl_Task_delete                                                
1001c301  ti_sysbios_knl_Task_destruct                                              
1001c305  ti_sysbios_knl_Task_startup__E                                            
1001c309  xdc_runtime_Startup_startMods__I                                          
1001c401  xdc_runtime_Core_createObject__I                                          
1001c483  xdc_runtime_Error_policySpin__E                                           
1001c485  xdc_runtime_Memory_alloc__E                                               
1001c4f5  xdc_runtime_Core_deleteObject__I                                          
1001c555  xdc_runtime_Startup_exec__E                                               
1001c5a5  xdc_runtime_Assert_raise__I                                               
1001c5ed  xdc_runtime_Core_assignParams__I                                          
1001c635  xdc_runtime_Core_constructObject__I                                       
1001c67d  xdc_runtime_System_atexit__E                                              
1001c6b5  xdc_runtime_System_processAtExit__E                                       
1001c6e9  xdc_runtime_Core_assignLabel__I                                           
1001c719  xdc_runtime_Text_cordText__E                                              
1001c745  xdc_runtime_System_abort__E                                               
1001c765  xdc_runtime_Error_raiseX__E                                               
1001c781  xdc_runtime_Memory_valloc__E                                              
1001c79d  xdc_runtime_Core_destructObject__I                                        
1001c7b5  xdc_runtime_Error_check__E                                                
1001c7cd  xdc_runtime_System_exit__E                                                
1001c7e5  xdc_runtime_Text_ropeText__E                                              
1001c7fd  xdc_runtime_Memory_free__E                                                
1001c80d  xdc_runtime_SysCallback_abort__E                                          
1001c80d  xdc_runtime_System_SupportProxy_abort__E                                  
1001c81d  xdc_runtime_SysCallback_exit__E                                           
1001c81d  xdc_runtime_System_SupportProxy_exit__E                                   
1001c82d  xdc_runtime_Timestamp_SupportProxy_get32__E                               
1001c82d  xdc_runtime_Timestamp_get32__E                                            
1001c82d  xdc_runtime_Timestamp_get32__E                                            
1001c849  xdc_runtime_Memory_calloc__E                                              
1001c855  xdc_runtime_Memory_getMaxDefaultTypeAlign__E                              
1001c875  xdc_runtime_Gate_leaveSystem__E                                           
1001c87b  xdc_runtime_System_Module_startup__E                                      
1001c881  xdc_runtime_Gate_enterSystem__E                                           
1001c885  xdc_runtime_Memory_HeapProxy_alloc__E                                     
1001c889  xdc_runtime_Memory_HeapProxy_free__E                                      
1001c88d  xdc_runtime_System_Module_GateProxy_enter__E                              
1001c891  xdc_runtime_System_Module_GateProxy_leave__E                              
1001c895  xdc_runtime_System_abortSpin__E                                           
1001c897  xdc_runtime_System_exitSpin__E                                            
1001c899  ti_sysbios_family_arm_m3_Hwi_dispatch__I                                  
1001c969  ti_sysbios_family_arm_m3_TaskSupport_buildTaskStack                       
1001c9b5  ti_sysbios_family_arm_m3_Hwi_initStacks__E                                
1001c9fd  ti_sysbios_family_arm_m3_Hwi_excHandlerAsm__I                             
1001ca1d  ti_sysbios_family_xxx_Hwi_switchAndRunFunc                                
1001ca3b  ti_sysbios_family_arm_m3_Hwi_pendSV__I                                    
1001ca53  ti_sysbios_family_arm_m3_Hwi_return                                       
1001ca55  ti_sysbios_family_arm_m3_TaskSupport_glue                                 
1001ca65  ti_sysbios_family_arm_m3_TaskSupport_swap__E                              
1001ca65  ti_sysbios_knl_Task_SupportProxy_swap__E__mangled__                       
1001ca6d  ti_sysbios_knl_Task_swapReturn                                            
1001ca97  ti_sysbios_rom_cortexm_cc13xx_CC13xx_getRevision__E                       
20000000  ti_sysbios_family_arm_m3_Hwi_ramVectors                                   
20000100  ti_sysbios_knl_Task_Module__state__V                                      
20000144  ti_sysbios_family_arm_m3_Hwi_Module__state__V                             
20000178  ti_sysbios_knl_Clock_Module__state__V                                     
200001a4  ti_sysbios_BIOS_Module__state__V                                          
200001c8  ti_sysbios_knl_Swi_Module__state__V                                       
200001e4  ti_sysbios_family_arm_cc26xx_Timer_Module__state__V                       
200001ec  ti_sysbios_family_arm_cc26xx_TimestampProvider_Module__state__V           
200001f0  xdc_runtime_Startup_Module__state__V                                      
200001f8  xdc_runtime_System_Module__state__V                                       
20000200  xdc_runtime_Memory_Module__state__V                                       
200010f8  ti_sysbios_knl_Task_Instance_State_0_stack__A                             
200012f8  spiCC26XXDMAObjects                                                       
200014c0  uartCC26XXObjects                                                         
200015ec  i2cCC26xxObjects                                                          
200016cc  ti_sysbios_family_arm_m3_Hwi_dispatchTable                                
20001c58  nodeRadioTask                                                             
20001ca8  nodeTask                                                                  
20001df8  fastReportTimeoutClock                                                    
20001e9c  uartCC26XXRingBuffer                                                      
20001ebc  udmaObjects                                                               
20001fa0  radioAccessSem                                                            
20001fbc  radioResultSem                                                            
20002060  nodeEvent                                                                 
20002074  radioOperationEvent                                                       
20002110  displayUartObject                                                         
2000211c  latestAccelerationAdcValue                                                
20002128  PowerCC26XX_taskKey                                                       
2000212c  PowerCC26XX_swiKey                                                        
20002153  driverlib_release_0_3_05_20_00001                                         
20002154  ClockP_tickPeriod                                                         
20002158  latestHumidAdcValue                                                       
2000215c  latestPressAdcValue                                                       
20002160  latestTempLocalAdcValue                                                   
20002168  __primary_heap_start__                                                    
20003168  __primary_heap_end__                                                      
20003168  pinUpperBound                                                             
2000316c  pinLowerBound                                                             
20003200  pinHandleTable                                                            
2000327c  PowerCC26XX_module                                                        
20003390  EasyLink_supportedPhys                                                    
200034a8  pOverrides_sl_lr                                                          
20003514  pOverrides_lrm                                                            
20003574  pOverrides_fsk                                                            
200035d0  pOverrides                                                                
20003628  ti_sysbios_gates_GateMutex_Object__table__V                               
2000367c  RF_PROP_txPowerTable                                                      
200036cc  ti_sysbios_knl_Task_Object__table__V                                      
20003718  ti_sysbios_family_arm_cc26xx_Timer_Object__table__V                       
200037a0  RF_cmdPropRxAdv_preDef                                                    
200037d0  stepCount                                                                 
200037d4  lastAdcValue                                                              
200037d6  luxThreshold                                                              
200037dc  lastStepTime                                                              
200037e0  t                                                                         
200037e8  latestAccXValue                                                           
200037ec  currentAccXValue                                                          
200037f0  threshold                                                                 
200037f8  totalAcc                                                                  
20003800  ti_sysbios_knl_Swi_Module_State_0_readyQ__A                               
20003830  ti_sysbios_knl_Swi_Object__table__V                                       
20003860  ti_sysbios_knl_Task_Module_State_0_readyQ__A                              
20003890  RF_cmdPropRadioDivSetup                                                   
200038b8  RF_cmdPropRadioDivSetup_fsk                                               
200038e0  RF_cmdPropRadioDivSetup_lrm                                               
20003908  RF_cmdPropRadioDivSetup_sl_lr                                             
20003958  ti_sysbios_knl_Clock_Object__table__V                                     
20003978  xdc_runtime_Error_IgnoreBlock                                             
200039b4  RF_cmdFs                                                                  
200039cc  RF_cmdFs_preDef                                                           
200039e4  RF_cmdPropTx                                                              
20003a14  ti_sysbios_family_arm_m3_Hwi_Object__table__V                             
20003a2c  ti_sysbios_heaps_HeapMem_Object__table__V                                 
20003a5c  RF_prop                                                                   
20003a6c  RF_prop_fsk                                                               
20003a7c  RF_prop_lrm                                                               
20003a8c  RF_prop_sl_lr                                                             
20003ab4  buttonPinTable                                                            
20003ad6  ti_sysbios_family_arm_m3_Hwi_Module_State_0_excActive__A                  
20003ad8  _lock                                                                     
20003adc  _unlock                                                                   
20003ae8  pinTable                                                                  
20003af0  ti_sysbios_family_arm_m3_Hwi_Module__root__V                              
20003af8  ti_sysbios_gates_GateHwi_Module__root__V                                  
20003b00  ti_sysbios_gates_GateMutex_Module__root__V                                
20003b08  ti_sysbios_hal_Hwi_Module__root__V                                        
20003b10  ti_sysbios_heaps_HeapMem_Module__root__V                                  
20003b18  ti_sysbios_knl_Clock_Module__root__V                                      
20003b20  ti_sysbios_knl_Event_Module__root__V                                      
20003b28  ti_sysbios_knl_Mailbox_Module__root__V                                    
20003b30  ti_sysbios_knl_Queue_Module__root__V                                      
20003b38  ti_sysbios_knl_Semaphore_Module__root__V                                  
20003b40  ti_sysbios_knl_Swi_Module__root__V                                        
20003b48  ti_sysbios_knl_Task_Module__root__V                                       
20003b50  xdc_runtime_System_Module_State_0_atexitHandlers__A                       
20003b5c  main_func_sp                                                              
20003b60  ti_sysbios_family_arm_m3_Hwi_Module_State_0_excContext__A                 
20003b64  ti_sysbios_family_arm_m3_Hwi_Module_State_0_excStack__A                   
20003b68  ti_sysbios_knl_Task_Module_State_0_idleTask__A                            
20004c00  __stack                                                                   
20005000  __STACK_END                                                               
e000e000  ti_sysbios_family_arm_m3_Hwi_nvic                                         
ffffffff  __TI_pprof_out_hndl                                                       
ffffffff  __TI_prof_data_size                                                       
ffffffff  __TI_prof_data_start                                                      
ffffffff  __binit__                                                                 
ffffffff  __c_args__                                                                
ffffffff  binit                                                                     
UNDEFED   SHT$$INIT_ARRAY$$Base                                                     
UNDEFED   SHT$$INIT_ARRAY$$Limit                                                    

[1067 symbols]
